ccopy_reg
_reconstructor
p0
(csklearn.feature_extraction.text
CountVectorizer
p1
c__builtin__
object
p2
Ntp3
Rp4
(dp5
S'binary'
p6
I01
sS'lowercase'
p7
I01
sS'stop_words'
p8
(lp9
S'a'
p10
aS'able'
p11
aS'about'
p12
aS'across'
p13
aS'after'
p14
aS'all'
p15
aS'almost'
p16
aS'also'
p17
aS'am'
p18
aS'among'
p19
aS'an'
p20
aS'and'
p21
aS'any'
p22
aS'are'
p23
aS'as'
p24
aS'at'
p25
aS'be'
p26
aS'because'
p27
aS'been'
p28
aS'but'
p29
aS'by'
p30
aS'can'
p31
aS'cannot'
p32
aS'could'
p33
aS'dear'
p34
aS'did'
p35
aS'do'
p36
aS'does'
p37
aS'either'
p38
aS'else'
p39
aS'ever'
p40
aS'every'
p41
aS'for'
p42
aS'from'
p43
aS'get'
p44
aS'got'
p45
aS'had'
p46
aS'has'
p47
aS'have'
p48
aS'he'
p49
aS'her'
p50
aS'hers'
p51
aS'him'
p52
aS'his'
p53
aS'how'
p54
aS'however'
p55
aS'i'
p56
aS'if'
p57
aS'in'
p58
aS'into'
p59
aS'is'
p60
aS'it'
p61
aS'its'
p62
aS'just'
p63
aS'least'
p64
aS'let'
p65
aS'like'
p66
aS'likely'
p67
aS'may'
p68
aS'me'
p69
aS'might'
p70
aS'most'
p71
aS'must'
p72
aS'my'
p73
aS'neither'
p74
aS'no'
p75
aS'nor'
p76
aS'not'
p77
aS'of'
p78
aS'off'
p79
aS'often'
p80
aS'on'
p81
aS'only'
p82
aS'or'
p83
aS'other'
p84
aS'our'
p85
aS'own'
p86
aS'rather'
p87
aS'said'
p88
aS'say'
p89
aS'says'
p90
aS'she'
p91
aS'should'
p92
aS'since'
p93
aS'so'
p94
aS'some'
p95
aS'than'
p96
aS'that'
p97
aS'the'
p98
aS'their'
p99
aS'them'
p100
aS'then'
p101
aS'there'
p102
aS'these'
p103
aS'they'
p104
aS'this'
p105
aS'tis'
p106
aS'to'
p107
aS'too'
p108
aS'twas'
p109
aS'us'
p110
aS'wants'
p111
aS'was'
p112
aS'we'
p113
aS'were'
p114
aS'what'
p115
aS'when'
p116
aS'where'
p117
aS'which'
p118
aS'while'
p119
aS'who'
p120
aS'whom'
p121
aS'why'
p122
aS'will'
p123
aS'with'
p124
aS'would'
p125
aS'yet'
p126
aS'you'
p127
aS'your'
p128
aS'twitter'
p129
aS'im'
p130
aS'work'
p131
aS'new'
p132
aS'tri'
p133
aS'wa'
p134
aS'day'
p135
aS'thi'
p136
aS'go'
p137
aS'out'
p138
aS'up'
p139
aS'now'
p140
asS'tokenizer'
p141
NsS'token_pattern'
p142
V(?u)\u005cb\u005cw\u005cw+\u005cb
p143
sS'charset_error'
p144
S'strict'
p145
sS'charset'
p146
S'utf-8'
p147
sS'fixed_vocabulary'
p148
I00
sS'analyzer'
p149
S'word'
p150
sS'vocabulary_'
p151
(dp152
Vwwwnowyouknowdinocom
p153
I5158
sVpardon
p154
I3329
sVelisabeth
p155
I1446
sVreboot
p156
I3707
sVappetito
p157
I206
sVsermon
p158
I4029
sVprotest
p159
I3604
sVsleep
p160
I4145
sVasian
p161
I256
sVupsid
p162
I4828
sVhate
p163
I2045
sVnwi
p164
I3178
sVoslo
p165
I3273
sVaccus
p166
I32
sVaccur
p167
I31
sVunkwown
p168
I4799
sVxml
p169
I5180
sVsorri
p170
I4229
sVtweep
p171
I4727
sVpov
p172
I3524
sVbike
p173
I465
sVbuddi
p174
I614
sVunder
p175
I4784
sVlord
p176
I2713
sVhedg
p177
I2079
sVcushi
p178
I1091
sVridicul
p179
I3831
sVworth
p180
I5115
sVupdatesmayb
p181
I4820
sVplayground
p182
I3460
sVniec
p183
I3106
sVsamedi
p184
I3928
sVdigit
p185
I1246
sVeveri
p186
I1535
sVrisk
p187
I3838
sVappal
p188
I203
sVcompassion
p189
I923
sVrise
p190
I3837
sVmayer
p191
I2827
sVtenni
p192
I4512
sVshoot
p193
I4074
sVhdtv
p194
I2059
sVfigu
p195
I1671
sVjack
p196
I2405
sVgovern
p197
I1926
sVaffect
p198
I70
sVmiamiboston
p199
I2880
sVspecial
p200
I4253
sVelvi
p201
I1454
sVdisturb
p202
I1279
sVbestfriend
p203
I446
sVecosaf
p204
I1413
sVparrot
p205
I3336
sVwwwstuffwhitepeoplelikecom
p206
I5164
sVwooden
p207
I5083
sVshowcas
p208
I4090
sVupload
p209
I4823
sVcma
p210
I865
sVupa
p211
I4817
sVmath
p212
I2820
sVcholesterol
p213
I805
sVwwwfancydressshopscom
p214
I5141
sVbarbecu
p215
I372
sVmacbit
p216
I2744
sVservic
p217
I4032
sVsuzann
p218
I4431
sVenjoy
p219
I1482
sVchew
p220
I786
sVparachut
p221
I3325
sVaggrev
p222
I84
sVcapsul
p223
I691
sVspeci
p224
I4252
sVnotquitedopeass
p225
I3148
sVneal
p226
I3062
sValmond
p227
I132
sVbacon
p228
I345
sVdirect
p229
I1255
sVhistor
p230
I2115
sVpreacher
p231
I3535
sVwwwlovesexandmarriagecom
p232
I5148
sVhors
p233
I2165
sVstreet
p234
I4354
sVforcu
p235
I1752
sVempow
p236
I1467
sVperfect
p237
I3391
sVumbrella
p238
I4774
sVfixin
p239
I1714
sVvirgin
p240
I4904
sVperish
p241
I3396
sVblue
p242
I514
sVemploy
p243
I1466
sVsettlement
p244
I4039
sVhide
p245
I2100
sVchrist
p246
I812
sVneg
p247
I3067
sVamus
p248
I155
sVbeaten
p249
I411
sVhp
p250
I2180
sVnear
p251
I3063
sVasia
p252
I255
sVwouldnt
p253
I5117
sVtail
p254
I4455
sVconduct
p255
I945
sVsupplier
p256
I4411
sVnet
p257
I3080
sVunclog
p258
I4783
sVgenealog
p259
I1864
sVdrawab
p260
I1343
sVliberti
p261
I2645
sVtold
p262
I4621
sVcrunch
p263
I1065
sVelimin
p264
I1445
sVmillion
p265
I2902
sVhero
p266
I2094
sVnanni
p267
I3040
sVatec
p268
I273
sVtechnologyblog
p269
I4495
sVmen
p270
I2861
sVmei
p271
I2854
sVauthorit
p272
I303
sVaiga
p273
I100
sVherd
p274
I2092
sVbangkok
p275
I365
sVmet
p276
I2871
sVcoal
p277
I869
sVchina
p278
I798
sVbeco
p279
I416
sVdogwood
p280
I1305
sVpath
p281
I3356
sVpennsylania
p282
I3383
sVsooooooooooo
p283
I4221
sVheadlin
p284
I2064
sVfiger
p285
I1667
sVdaughter
p286
I1129
sVcindi
p287
I823
sVauction
p288
I292
sVgulliani
p289
I1986
sVanymor
p290
I192
sVinterupt
p291
I2350
sVverdant
p292
I4877
sVloos
p293
I2712
sVdri
p294
I1353
sVcredit
p295
I1047
sVsunshin
p296
I4405
sVdrm
p297
I1357
sVblackberrywhen
p298
I486
sVsmoke
p299
I4178
sVwwwdancecitycouk
p300
I5139
sVmime
p301
I2906
sVaka
p302
I110
sVpack
p303
I3305
sVglu
p304
I1901
sVpit
p305
I3438
sVcontroversi
p306
I981
sVcounti
p307
I1015
sVinuendo
p308
I2356
sVvolunt
p309
I4922
sVcampaign
p310
I673
sVmotley
p311
I2986
sVloveless
p312
I2724
sVreagan
p313
I3695
sVstink
p314
I4335
sVhomemad
p315
I2140
sVbro
p316
I589
sVmarina
p317
I2793
sVattitud
p318
I291
sVmoral
p319
I2974
sVtonya
p320
I4637
sVtotal
p321
I4648
sVjuust
p322
I2483
sVunit
p323
I4796
sVsarah
p324
I3937
sVplot
p325
I3471
sVworldventur
p326
I5108
sVdescrib
p327
I1208
sVdnc
p328
I1293
sVlikley
p329
I2660
sVdnn
p330
I1294
sVspel
p331
I4257
sVinsult
p332
I2332
sVreadi
p333
I3693
sVreour
p334
I3772
sVprogram
p335
I3586
sVcall
p336
I665
sVcalm
p337
I667
sVarmi
p338
I237
sVstrike
p339
I4358
sVtj
p340
I4608
sVtryin
p341
I4701
sVnutsveri
p342
I3175
sVtell
p343
I4503
sVtreesay
p344
I4676
sVtweek
p345
I4726
sVrediscov
p346
I3727
sVpaperwork
p347
I3324
sVetern
p348
I1518
sVremark
p349
I3761
sVnotif
p350
I3146
sVhaha
p351
I2002
sVunderwear
p352
I4790
sVaward
p353
I322
sVhurt
p354
I2229
sVglass
p355
I1894
sVberlin
p356
I443
sVwarm
p357
I4947
sVrip
p358
I3835
sVholi
p359
I2133
sVloss
p360
I2716
sVhole
p361
I2132
sVhold
p362
I2129
sVunpack
p363
I4805
sVfuqu
p364
I1826
sVorigin
p365
I3268
sVaddon
p366
I50
sVrockford
p367
I3856
sVaccid
p368
I24
sVkedrowski
p369
I2499
sVergo
p370
I1500
sVdodg
p371
I1299
sVroom
p372
I3873
sVpeolpl
p373
I3385
sVplayer
p374
I3459
sVraptiv
p375
I3681
sVtb
p376
I4480
sVmo
p377
I2933
sVblade
p378
I488
sVmi
p379
I2877
sVworm
p380
I5110
sVmj
p381
I2928
sVmu
p382
I3008
sVrohan
p383
I3864
sVmp
p384
I2995
sVms
p385
I3000
sVmr
p386
I2996
sVroos
p387
I3876
sVcarmen
p388
I705
sVsassafrazz
p389
I3941
sVantislaveri
p390
I186
sVvodka
p391
I4918
sVclimat
p392
I850
sVgive
p393
I1889
sVoverextend
p394
I3294
sVwank
p395
I4943
sVdolphin
p396
I1311
sVindia
p397
I2290
sVvegasi
p398
I4868
sVfrighten
p399
I1798
sVsurveyor
p400
I4423
sVhttpwwwhornyprocom
p401
I2205
sVliter
p402
I2680
sVvanillablack
p403
I4859
sVpoint
p404
I3484
sVyippeeemonday
p405
I5211
sVorganizationschurch
p406
I3264
sVchandi
p407
I756
sVhoe
p408
I2128
sVend
p409
I1471
sVpogo
p410
I3483
sVcoastcoast
p411
I871
sVquot
p412
I3652
sVpolic
p413
I3489
sVhoo
p414
I2152
sVtravel
p415
I4674
sVverv
p416
I4882
sVfinalist
p417
I1684
sVsquidoocomaahf
p418
I4283
sVfar
p419
I1618
sVhot
p420
I2171
sVenforc
p421
I1476
sVsever
p422
I4042
sVunleash
p423
I4800
sVanswer
p424
I180
sVdisappoint
p425
I1261
sVnegoti
p426
I3070
sVbeach
p427
I405
sVhorror
p428
I2164
sVcollaps
p429
I882
sVsedu
p430
I3993
sVwaltham
p431
I4940
sVfiget
p432
I1668
sVbday
p433
I402
sVworki
p434
I5097
sVchines
p435
I799
sVearlier
p436
I1398
sVstroller
p437
I4361
sVhelpsuggest
p438
I2090
sVvoic
p439
I4920
sVbadli
p440
I347
sVwrong
p441
I5130
sVteenag
p442
I4498
sVlax
p443
I2598
sVlay
p444
I2599
sVbeauti
p445
I412
sVsamesex
p446
I3929
sVnatch
p447
I3048
sVloubug
p448
I2720
sVlaw
p449
I2597
sVloyalti
p450
I2729
sVdemonstr
p451
I1192
sVharmoni
p452
I2035
sVwrestl
p453
I5125
sVawardsit
p454
I323
sVattempt
p455
I287
sVthird
p456
I4557
sVpalinbut
p457
I3318
sVsegregationistslaveri
p458
I4000
sVcredenti
p459
I1046
sVlololol
p460
I2699
sVgreet
p461
I1955
sVthink
p462
I4554
sVgreek
p463
I1952
sVdanni
p464
I1119
sVenviron
p465
I1493
sVbedbath
p466
I419
sVgrandkid
p467
I1938
sVenter
p468
I1487
sVnewschannel
p469
I3090
sVveggi
p470
I4869
sVadrov
p471
I59
sVwind
p472
I5045
sVwine
p473
I5049
sVoper
p474
I3247
sVtheme
p475
I4539
sVfeedback
p476
I1644
sVincit
p477
I2282
sVsoftwar
p478
I4195
sVdiagnos
p479
I1230
sVfundrais
p480
I1820
sVorang
p481
I3256
sVbecaus
p482
I415
sVtwitterthi
p483
I4751
sVthego
p484
I4538
sVitaliarailcom
p485
I2390
sVlookout
p486
I2708
sVjapan
p487
I2418
sVaargh
p488
I3
sVmayor
p489
I2829
sVdigest
p490
I1243
sVyorker
p491
I5218
sVclm
p492
I853
sVvideo
p493
I4892
sVpharma
p494
I3406
sVfit
p495
I1711
sVhospit
p496
I2168
sVcanto
p497
I687
sVticker
p498
I4586
sVfix
p499
I1713
sVdenver
p500
I1198
sVcrew
p501
I1051
sVbetter
p502
I450
sVxb
p503
I5176
sVoffic
p504
I3209
sVcomplex
p505
I931
sVsomewhat
p506
I4208
sVvast
p507
I4863
sVsoulmov
p508
I4232
sVonc
p509
I3232
sVbelittl
p510
I436
sVltr
p511
I2732
sVfin
p512
I1681
sVfio
p513
I1696
sVworkload
p514
I5099
sVftse
p515
I1807
sVanim
p516
I173
sViowa
p517
I2364
sVsplitter
p518
I4269
sVfragment
p519
I1776
sVplaster
p520
I3454
sVsafe
p521
I3917
sVhealthyliv
p522
I2068
sVthea
p523
I4533
sVzac
p524
I5239
sVbreak
p525
I570
sVband
p526
I360
sVbang
p527
I362
sVinescap
p528
I2299
sVpromis
p529
I3593
sVsack
p530
I3910
sVvelcro
p531
I4871
sVinterrupt
p532
I2349
sVjetlag
p533
I2440
sVone
p534
I3234
sVlifelong
p535
I2653
sVsilver
p536
I4109
sVbank
p537
I367
sVbread
p538
I569
sVsubcommitte
p539
I4377
sVchoic
p540
I804
sVruth
p541
I3907
sValex
p542
I121
sVaaaaahhhhh
p543
I0
sVthenm
p544
I4543
sVdoingright
p545
I1308
sVewwww
p546
I1546
sVsmartphon
p547
I4171
sVnaysay
p548
I3055
sVwwwnewsweek
p549
I5156
sVmead
p550
I2838
sVarrow
p551
I243
sVeach
p552
I1393
sVwhoot
p553
I5027
sVwent
p554
I5004
sVeuropean
p555
I1524
sVoblig
p556
I3188
sVside
p557
I4100
sVluck
p558
I2733
sVburial
p559
I628
sVwoo
p560
I5081
sVdiana
p561
I1231
sVchurchstat
p562
I820
sVenorm
p563
I1484
sVspanish
p564
I4245
sVspider
p565
I4263
sVarduou
p566
I226
sVwednesday
p567
I4988
sVtip
p568
I4604
sVtaught
p569
I4475
sVroxi
p570
I3890
sVfirstwatch
p571
I1707
sVdoug
p572
I1328
sVlogo
p573
I2697
sVflock
p574
I1728
sVcollector
p575
I884
sVsaturday
p576
I3947
sVraini
p577
I3668
sVrt
p578
I3894
sVdepress
p579
I1202
sVgon
p580
I1913
sVnetwork
p581
I3082
sVrr
p582
I3891
sVgoe
p583
I1909
sVgod
p584
I1903
sVnewli
p585
I3088
sVmason
p586
I2811
sVcontent
p587
I973
sVmethod
p588
I2874
sVwasilla
p589
I4955
sVrare
p590
I3682
sVnite
p591
I3111
sVreader
p592
I3692
sVmessag
p593
I2870
sVwsu
p594
I5132
sVwasher
p595
I4952
sVgov
p596
I1925
sVsluggish
p597
I4162
sVgop
p598
I1921
sVrj
p599
I3842
sViam
p600
I2243
sVrest
p601
I3797
sVnavig
p602
I3054
sVintendedi
p603
I2337
sVprognost
p604
I3585
sVfave
p605
I1632
sVfree
p606
I1787
sVstandard
p607
I4297
sVshawn
p608
I4056
sVkayla
p609
I2496
sVspill
p610
I4264
sVtarzan
p611
I4470
sVrain
p612
I3666
sVrobinson
p613
I3851
sVmoosh
p614
I2972
sVknit
p615
I2539
sVfring
p616
I1799
sVdrench
p617
I1347
sVlousi
p618
I2722
sVintruseando
p619
I2355
sVate
p620
I272
sVdayz
p621
I1137
sVatc
p622
I271
sVmacessenti
p623
I2746
sVbletchley
p624
I495
sVblogot
p625
I507
sVustream
p626
I4840
sVsteward
p627
I4329
sVfilter
p628
I1680
sVloui
p629
I2721
sVatt
p630
I283
sVheck
p631
I2077
sVamazonca
p632
I146
sVmalawi
p633
I2769
sVtranssiberian
p634
I4671
sViphon
p635
I2366
sVportal
p636
I3509
sVasourc
p637
I260
sVconfus
p638
I952
sVbite
p639
I481
sVfuckin
p640
I1810
sVstewart
p641
I4330
sVfantasi
p642
I1615
sVrender
p643
I3767
sVgrade
p644
I1933
sVnhl
p645
I3101
sVhoop
p646
I2157
sVindepend
p647
I2287
sVwast
p648
I4958
sVhoot
p649
I2159
sVnotch
p650
I3141
sVrestrict
p651
I3800
sVhook
p652
I2154
sVseinfeld
p653
I4001
sValreadi
p654
I137
sVhooo
p655
I2156
sVbionic
p656
I473
sVwwwmyvinyin
p657
I5154
sVrendel
p658
I3766
sVchchcheck
p659
I771
sVtablework
p660
I4450
sVagre
p661
I91
sVfantast
p662
I1617
sVcareersuggest
p663
I700
sVairb
p664
I104
sVtoy
p665
I4657
sVzinfindel
p666
I5243
sVbloomburg
p667
I513
sVsarcasm
p668
I3938
sVtop
p669
I4642
sVgcse
p670
I1856
sVfiction
p671
I1664
sVmercuri
p672
I2866
sVkinder
p673
I2526
sVjamba
p674
I2413
sVtoi
p675
I4618
sVdumbass
p676
I1378
sVfashionspacecombeast
p677
I1624
sVtea
p678
I4482
sVviral
p679
I4902
sVsadli
p680
I3914
sVhollywood
p681
I2136
sVjohn
p682
I2453
sVoutag
p683
I3278
sVhoskin
p684
I2167
sVlisten
p685
I2678
sVurban
p686
I4831
sVmurder
p687
I3015
sVconsol
p688
I963
sVgeneva
p689
I1866
sVtasi
p690
I4471
sVhaunt
p691
I2048
sVseper
p692
I4023
sVgym
p693
I1993
sVtook
p694
I4638
sVtue
p695
I4709
sVjiujitsu
p696
I2444
sVleagu
p697
I2611
sVwarhamm
p698
I4946
sVtask
p699
I4472
sVyuk
p700
I5234
sVcereal
p701
I741
sVconserv
p702
I960
sVhappili
p703
I2030
sVkept
p704
I2510
sVdigg
p705
I1244
sVtechnic
p706
I4492
sVornl
p707
I3271
sVtrek
p708
I4677
sVfullfil
p709
I1814
sVguild
p710
I1979
sVtreo
p711
I4680
sVprovid
p712
I3606
sVbebo
p713
I413
sVtree
p714
I4675
sVnarrat
p715
I3046
sVhomeowrk
p716
I2141
sVebay
p717
I1409
sVproject
p718
I3590
sVmatter
p719
I2823
sVanxieti
p720
I189
sVbedqbr
p721
I420
sVsooth
p722
I4222
sVminut
p723
I2913
sVstori
p724
I4343
sVjacketumbrella
p725
I2407
sVbeginn
p726
I429
sVrag
p727
I3662
sVchickent
p728
I790
sVran
p729
I3678
sVboston
p730
I543
sVmodern
p731
I2942
sVmind
p732
I2908
sVdildo
p733
I1248
sVboeuf
p734
I527
sVspent
p735
I4261
sVminx
p736
I2914
sVraw
p737
I3685
sVfrontlin
p738
I1802
sVunbiqu
p739
I4778
sVsubstitut
p740
I4384
sVastronomyspaceevolutiontechnolog
p741
I270
sVseen
p742
I3999
sVscutini
p743
I3984
sVseek
p744
I3996
sVboogi
p745
I532
sVseminar
p746
I4008
sVanchorag
p747
I164
sVreali
p748
I3697
sVcouchnot
p749
I1008
sVponder
p750
I3498
sVstrength
p751
I4355
sVperson
p752
I3398
sVharper
p753
I2037
sVlatter
p754
I2588
sVelectromechan
p755
I1438
sVmatthew
p756
I2824
sVtacoma
p757
I4452
sVcontact
p758
I970
sVchess
p759
I785
sVpromptf
p760
I3597
sVthoma
p761
I4564
sVokil
p762
I3219
sVpension
p763
I3384
sVpaintbrush
p764
I3313
sVkwho
p765
I2556
sVanatomi
p766
I162
sVeven
p767
I1530
sVgermani
p768
I1875
sVplenti
p769
I3469
sVshall
p770
I4048
sVusernam
p771
I4838
sVdoin
p772
I1306
sVmother
p773
I2984
sVquit
p774
I3651
sVgt
p775
I1969
sVmarin
p776
I2792
sVgrassroot
p777
I1945
sVmouth
p778
I2991
sVdaywith
p779
I1136
sVletter
p780
I2635
sVprogramm
p781
I3587
sVphase
p782
I3407
sVsilli
p783
I4108
sVcoin
p784
I878
sVairship
p785
I106
sVglow
p786
I1900
sVsquash
p787
I4280
sVexcus
p788
I1560
sVdon
p789
I1313
sVdoo
p790
I1318
sVhanna
p791
I2025
sVewwwyyi
p792
I1547
sVinterject
p793
I2345
sValarm
p794
I113
sVcathol
p795
I724
sVflow
p796
I1732
sVdog
p797
I1303
sVdoe
p798
I1301
sVexpectedgotta
p799
I1568
sVstorm
p800
I4344
sVaunt
p801
I297
sVcarolin
p802
I708
sVsun
p803
I4403
sVworkedthen
p804
I5096
sVpropos
p805
I3600
sVdow
p806
I1330
sVdot
p807
I1324
sVmarvel
p808
I2806
sVashor
p809
I254
sVbomb
p810
I529
sVlearner
p811
I2615
sVcheapli
p812
I774
sVgeekup
p813
I1861
sVadvisori
p814
I68
sVroundtabl
p815
I3886
sVradio
p816
I3660
sVmattbookonlinecom
p817
I2822
sVsnack
p818
I4182
sVradic
p819
I3659
sVearth
p820
I1400
sVbail
p821
I349
sVthai
p822
I4528
sVinvolv
p823
I2363
sVdespit
p824
I1215
sVcarib
p825
I701
sVnobodi
p826
I3117
sVlayout
p827
I2601
sVorna
p828
I3270
sVexplain
p829
I1575
sVocd
p830
I3198
sVbust
p831
I634
sVscummvm
p832
I3983
sVhere
p833
I2093
sVbush
p834
I631
sVbusi
p835
I633
sVbliss
p836
I497
sVrick
p837
I3826
sVrich
p838
I3824
sVlonghorn
p839
I2706
sVboyfriend
p840
I556
sVflorenc
p841
I1730
sVoct
p842
I3200
sVwindatleast
p843
I5046
sVdn
p844
I1292
sVgeez
p845
I1862
sVdm
p846
I1290
sVdj
p847
I1286
sVtammi
p848
I4464
sVdi
p849
I1229
sVdd
p850
I1142
sVde
p851
I1143
sVdb
p852
I1139
sVdc
p853
I1141
sVhussain
p854
I2231
sVcoast
p855
I870
sVgeek
p856
I1860
sVcannoti
p857
I684
sVamazon
p858
I145
sVgiggl
p859
I1881
sVdz
p860
I1392
sVspirit
p861
I4266
sVhighland
p862
I2103
sVreport
p863
I3778
sVhaiti
p864
I2009
sVdr
p865
I1337
sVds
p866
I1366
sVslack
p867
I4142
sVearl
p868
I1396
sVturkishtornado
p869
I4715
sVearn
p870
I1399
sVemf
p871
I1463
sVwert
p872
I5006
sVemb
p873
I1458
sVafternoonit
p874
I78
sVreiligion
p875
I3746
sVdisco
p876
I1262
sVsauc
p877
I3948
sVbag
p878
I348
sVbad
p879
I346
sVolbermann
p880
I3221
sVaccomplicomau
p881
I25
sVtroop
p882
I4691
sVban
p883
I359
sVbam
p884
I358
sVbashaw
p885
I385
sVsetup
p886
I4040
sVerpevaluatorcom
p887
I1506
sVrespond
p888
I3795
sVsutff
p889
I4427
sVinquirerwoooo
p890
I2317
sVvictim
p891
I4889
sVfair
p892
I1596
sVhabit
p893
I1997
sVnut
p894
I3173
sVtryingto
p895
I4702
sVmeg
p896
I2853
sVheheheheheh
p897
I2083
sVnum
p898
I3167
sVresult
p899
I3801
sVrespons
p900
I3796
sVcorrupt
p901
I1005
sViran
p902
I2372
sVnews
p903
I3089
sVcharact
p904
I762
sVhammer
p905
I2016
sVbest
p906
I445
sVsubject
p907
I4378
sVdishwash
p908
I1270
sVmoron
p909
I2978
sVpeta
p910
I3403
sVmichelin
p911
I2883
sVmitch
p912
I2925
sVubiqu
p913
I4761
sVdatabas
p914
I1127
sVaway
p915
I325
sVsllep
p916
I4158
sVpilat
p917
I3429
sViri
p918
I2375
sVfigur
p919
I1672
sVdeliev
p920
I1179
sVfinger
p921
I1691
sVawak
p922
I319
sVpongim
p923
I3499
sVglasgow
p924
I1893
sVturnov
p925
I4717
sVlifewhat
p926
I2656
sVaccord
p927
I27
sVnever
p928
I3083
sVomg
p929
I3230
sVome
p930
I3228
sVpointer
p931
I3485
sVweak
p932
I4975
sVye
p933
I5201
sVwi
p934
I5031
sVblitzer
p935
I500
sVextens
p936
I1579
sVlazi
p937
I2603
sVdrew
p938
I1352
sVrecent
p939
I3712
sVcousin
p940
I1021
sVadvertis
p941
I64
sVdebt
p942
I1154
sVwwwnewsfromtheshirecom
p943
I5155
sVnahhhh
p944
I3033
sVbloggin
p945
I504
sVgoddess
p946
I1905
sVell
p947
I1451
sVcow
p948
I1024
sVvision
p949
I4909
sVfault
p950
I1629
sVhowev
p951
I2178
sVcanuk
p952
I688
sVahora
p953
I97
sVagainst
p954
I81
sVpiti
p955
I3441
sVfreezeup
p956
I1792
sVramadan
p957
I3674
sVbrad
p958
I558
sVgarageband
p959
I1842
sVcountri
p960
I1016
sVlogin
p961
I2695
sVcon
p962
I934
sVhuard
p963
I2212
sVhoopclin
p964
I2158
sVsalad
p965
I3922
sVpose
p966
I3513
sVtoni
p967
I4631
sVvote
p968
I4923
sVvain
p969
I4853
sVpalin
p970
I3316
sVdeyoung
p971
I1227
sVmap
p972
I2788
sVheight
p973
I2084
sVsync
p974
I4444
sVkirkarrest
p975
I2531
sVkaren
p976
I2488
sVfoobal
p977
I1745
sVwider
p978
I5035
sVrep
p979
I3773
sVguid
p980
I1976
sVassum
p981
I268
sVnotjustadmissionscom
p982
I3147
sVbigvik
p983
I464
sVnake
p984
I3036
sVliabil
p985
I2643
sVbathroom
p986
I394
sVstrong
p987
I4362
sVayan
p988
I332
sVchrome
p989
I814
sVwwwtranslationslcicom
p990
I5169
sVpatch
p991
I3355
sVantec
p992
I182
sVfrm
p993
I1800
sVsubscriz
p994
I4382
sVaske
p995
I258
sVoveral
p996
I3291
sVbeer
p997
I423
sVmuch
p998
I3009
sVunsubscrib
p999
I4812
sVlinequest
p1000
I2668
sVinterest
p1001
I2342
sVbasic
p1002
I387
sVsquidoo
p1003
I4282
sVpoppunk
p1004
I3505
sVthrice
p1005
I4572
sVhesit
p1006
I2097
sVquickli
p1007
I3648
sVlife
p1008
I2651
sVprepe
p1009
I3544
sVtring
p1010
I4687
sVluther
p1011
I2738
sVallez
p1012
I129
sVdave
p1013
I1131
sVlift
p1014
I2657
sVnonalcohol
p1015
I3124
sVchup
p1016
I817
sVchild
p1017
I791
sVcatch
p1018
I722
sVdeterior
p1019
I1219
sVlayton
p1020
I2602
sVspin
p1021
I4265
sVdavi
p1022
I1132
sVchill
p1023
I793
sVstubbl
p1024
I4367
sVgyah
p1025
I1992
sVnead
p1026
I3061
sVforum
p1027
I1764
sVdissect
p1028
I1273
sVgasolin
p1029
I1844
sVcommerci
p1030
I907
sVair
p1031
I103
sVaim
p1032
I101
sVsmoketh
p1033
I4179
sVcalcul
p1034
I659
sVslam
p1035
I4143
sVmarriag
p1036
I2800
sVstr
p1037
I4345
sVkifh
p1038
I2520
sVmilitari
p1039
I2899
sVoccas
p1040
I3194
sVaid
p1041
I99
sVvagu
p1042
I4852
sVaic
p1043
I98
sVcatticanet
p1044
I725
sVseven
p1045
I4041
sVdizzi
p1046
I1285
sVconv
p1047
I982
sVmexico
p1048
I2876
sVip
p1049
I2365
sVtheatr
p1050
I4535
sVir
p1051
I2371
sVii
p1052
I2262
sVjess
p1053
I2437
sVcant
p1054
I686
sVeighteen
p1055
I1430
sVprimariesharp
p1056
I3560
sVil
p1057
I2265
sVconf
p1058
I946
sVjesu
p1059
I2439
sVia
p1060
I2242
sVshift
p1061
I4064
sVie
p1062
I2259
sVid
p1063
I2252
sVdisappear
p1064
I1260
sVwwwthehopeshoporg
p1065
I5165
sVfuke
p1066
I1811
sVwordtrack
p1067
I5094
sVbelli
p1068
I438
sVjame
p1069
I2414
sVperform
p1070
I3392
sVsuggest
p1071
I4396
sVmake
p1072
I2767
sViniti
p1073
I2310
sVricksanchez
p1074
I3827
sVbunni
p1075
I625
sVdazzl
p1076
I1138
sVrnc
p1077
I3844
sVdrawback
p1078
I1344
sVroland
p1079
I3865
sVsplit
p1080
I4268
sVtackl
p1081
I4451
sVgoddamnit
p1082
I1904
sVsat
p1083
I3942
sVmoodl
p1084
I2969
sVcomplet
p1085
I930
sVsittin
p1086
I4128
sVraid
p1087
I3663
sVfuss
p1088
I1829
sVnod
p1089
I3119
sVsacramento
p1090
I3911
sVswell
p1091
I4436
sVsocial
p1092
I4190
sVhang
p1093
I2023
sVevil
p1094
I1543
sVhand
p1095
I2019
sVdelight
p1096
I1180
sVcodebas
p1097
I875
sVoncal
p1098
I3233
sVwarranti
p1099
I4948
sVsupper
p1100
I4409
sVtuna
p1101
I4713
sVphilli
p1102
I3413
sVstudi
p1103
I4370
sVtune
p1104
I4714
sVkid
p1105
I2518
sVscalabilti
p1106
I3956
sVqualif
p1107
I3637
sVdylan
p1108
I1391
sVgirltalk
p1109
I1887
sVnoe
p1110
I3120
sVthx
p1111
I4584
sVwowowowowow
p1112
I5121
sVhomerun
p1113
I2142
sVroommat
p1114
I3875
sVtho
p1115
I4563
sVclient
p1116
I848
sVgreatest
p1117
I1950
sVlanc
p1118
I2569
sVjudg
p1119
I2473
sValabama
p1120
I112
sVjook
p1121
I2462
sVcampu
p1122
I676
sVlegisl
p1123
I2626
sVleft
p1124
I2620
sVjoshua
p1125
I2465
sVagon
p1126
I89
sVbackground
p1127
I342
sVcharlott
p1128
I765
sVyea
p1129
I5202
sVphoto
p1130
I3416
sVlaptop
p1131
I2573
sVordin
p1132
I3259
sVnoonat
p1133
I3129
sVpurs
p1134
I3629
sVthemit
p1135
I4540
sVpsych
p1136
I3610
sVhuman
p1137
I2217
sVnarcissist
p1138
I3045
sVgaeta
p1139
I1833
sVthingunwind
p1140
I4553
sVsleepi
p1141
I4146
sVarkansascyndi
p1142
I234
sVlanguag
p1143
I2572
sVenlighten
p1144
I1483
sVhah
p1145
I2001
sVham
p1146
I2014
sVeasi
p1147
I1402
sVtodo
p1148
I4616
sVworst
p1149
I5114
sVjosh
p1150
I2464
sVsatellit
p1151
I3944
sVpostal
p1152
I3519
sVhay
p1153
I2054
sVbni
p1154
I520
sVspread
p1155
I4274
sVboard
p1156
I521
sVprison
p1157
I3568
sVels
p1158
I1453
sVsupervisor
p1159
I4408
sVeast
p1160
I1404
sVhat
p1161
I2044
sVviscapecom
p1162
I4908
sVgave
p1163
I1849
sVsanit
p1164
I3934
sVapplic
p1165
I212
sVorangeyellow
p1166
I3257
sVnewspap
p1167
I3093
sVmayb
p1168
I2826
sVpreserv
p1169
I3549
sVsmedley
p1170
I4172
sVmayo
p1171
I2828
sVdonat
p1172
I1314
sVbushi
p1173
I632
sVarab
p1174
I219
sVlcd
p1175
I2605
sVfulham
p1176
I1812
sVbbox
p1177
I401
sVbirth
p1178
I475
sVelabor
p1179
I1433
sVgovt
p1180
I1928
sVcape
p1181
I689
sVchipotl
p1182
I801
sVathlet
p1183
I277
sVapart
p1184
I199
sVshoulder
p1185
I4084
sVbrought
p1186
I600
sVmartha
p1187
I2802
sVgift
p1188
I1880
sViannitti
p1189
I2245
sVworkshop
p1190
I5103
sVhunt
p1191
I2226
sVmanual
p1192
I2784
sVunix
p1193
I4798
sVgodin
p1194
I1906
sVhammi
p1195
I2017
sVnudg
p1196
I3166
sVhttpwwwindiaforumscom
p1197
I2206
sVperfum
p1198
I3393
sVorleansoh
p1199
I3269
sVnight
p1200
I3108
sVunfortunatli
p1201
I4793
sVjanki
p1202
I2416
sVmcgwire
p1203
I2834
sVthissequenti
p1204
I4561
sVscout
p1205
I3974
sVtummi
p1206
I4712
sVright
p1207
I3832
sVold
p1208
I3222
sVcrowd
p1209
I1057
sVcuisin
p1210
I1078
sVunderstand
p1211
I4786
sVnegat
p1212
I3068
sVcrown
p1213
I1058
sVsantiago
p1214
I3935
sVdead
p1215
I1144
sVvbnet
p1216
I4865
sVanella
p1217
I167
sVintern
p1218
I2346
sVprinter
p1219
I3565
sVmythbust
p1220
I3027
sVsinu
p1221
I4122
sVux
p1222
I4848
sVbore
p1223
I539
sVdoorstep
p1224
I1322
sVforgotten
p1225
I1758
sVwwwsatellitetvtopccom
p1226
I5160
sVtxt
p1227
I4756
sVcooper
p1228
I995
sVyike
p1229
I5210
sVbottom
p1230
I547
sVwwwspringbookch
p1231
I5163
sVdeploy
p1232
I1200
sVfox
p1233
I1774
sVmogwai
p1234
I2944
sVice
p1235
I2248
sVeleph
p1236
I1442
sVfog
p1237
I1739
sVtekzilla
p1238
I4500
sVovercom
p1239
I3292
sVcnn
p1240
I866
sVcondit
p1241
I944
sVfoo
p1242
I1744
sVricksanchezcnn
p1243
I3828
sVdrink
p1244
I1355
sVcreatur
p1245
I1045
sVparticular
p1246
I3342
sVbold
p1247
I528
sVschoooool
p1248
I3967
sVburb
p1249
I626
sVpost
p1250
I3517
sVtour
p1251
I4651
sVcorn
p1252
I999
sVdeleteg
p1253
I1177
sVburi
p1254
I627
sVconfer
p1255
I947
sVwhi
p1256
I5017
sVmarri
p1257
I2799
sVdiscount
p1258
I1264
sVsift
p1259
I4101
sVcolleg
p1260
I885
sVpromot
p1261
I3595
sVkeeper
p1262
I2501
sVpeep
p1263
I3378
sVhtpc
p1264
I2186
sVsuper
p1265
I4406
sVplug
p1266
I3473
sVcommin
p1267
I909
sVtroubl
p1268
I4693
sVcowboy
p1269
I1025
sVhutchinson
p1270
I2233
sVslightli
p1271
I4155
sVbeta
p1272
I448
sVsurround
p1273
I4421
sVsept
p1274
I4024
sVfestiv
p1275
I1653
sVdinner
p1276
I1251
sVafternoon
p1277
I77
sVhorizon
p1278
I2161
sVliber
p1279
I2644
sVadel
p1280
I53
sVcommit
p1281
I911
sVtryi
p1282
I4700
sVanthropolog
p1283
I183
sVmarshal
p1284
I2801
sVblatin
p1285
I491
sVmatch
p1286
I2817
sVsoa
p1287
I4186
sVlooooooonnnnggg
p1288
I2710
sVhttpwwweagleeyefreefallcom
p1289
I2203
sVtelephon
p1290
I4501
sVthermostat
p1291
I4546
sVcivic
p1292
I831
sVcivil
p1293
I832
sVcuriou
p1294
I1088
sVahh
p1295
I94
sVfloat
p1296
I1727
sVprofession
p1297
I3581
sVmba
p1298
I2831
sVsoo
p1299
I4217
sVbath
p1300
I393
sVdown
p1301
I1331
sVcreativ
p1302
I1043
sVstrawberri
p1303
I4351
sVbatt
p1304
I395
sVchairti
p1305
I749
sVtaxesther
p1306
I4477
sVsoy
p1307
I4240
sVopportun
p1308
I3250
sVcafeteria
p1309
I653
sVstorag
p1310
I4341
sVmicrowav
p1311
I2885
sVnovo
p1312
I3155
sVhallo
p1313
I2012
sVbeth
p1314
I449
sVdeal
p1315
I1146
sVpsychot
p1316
I3612
sVfrustrat
p1317
I1804
sVsock
p1318
I4192
sVnevr
p1319
I3084
sVmassag
p1320
I2814
sVsleepingfinish
p1321
I4147
sVfight
p1322
I1669
sVavail
p1323
I313
sVpeachthat
p1324
I3372
sVreli
p1325
I3754
sVfought
p1326
I1767
sVwordpress
p1327
I5093
sVfraction
p1328
I1775
sVtwice
p1329
I4733
sVmusic
p1330
I3018
sVwaitn
p1331
I4933
sVconstantli
p1332
I965
sVwar
p1333
I4945
sVkoswho
p1334
I2551
sVcomcast
p1335
I897
sVanalysi
p1336
I157
sVheadach
p1337
I2061
sVhead
p1338
I2060
sVslip
p1339
I4156
sVform
p1340
I1760
sVaccounttranscend
p1341
I29
sVforc
p1342
I1751
sVheal
p1343
I2065
sVrecommend
p1344
I3716
sVstereo
p1345
I4326
sVoil
p1346
I3216
sVwireless
p1347
I5055
sVspam
p1348
I4244
sVheat
p1349
I2073
sVhear
p1350
I2069
sVpeperoni
p1351
I3387
sVsmallvil
p1352
I4168
sVfischerspasski
p1353
I1708
sVanalyst
p1354
I158
sVfort
p1355
I1763
sVnerf
p1356
I3078
sVwood
p1357
I5082
sVthrow
p1358
I4576
sVflavour
p1359
I1720
sVhappen
p1360
I2027
sVmalaysia
p1361
I2770
sVinquir
p1362
I2316
sVtype
p1363
I4759
sVdaddi
p1364
I1103
sVmtv
p1365
I3006
sVuntil
p1366
I4815
sVworkwait
p1367
I5105
sVcrystal
p1368
I1071
sVmtn
p1369
I3005
sVkiraboshi
p1370
I2530
sVjakarta
p1371
I2411
sVwwa
p1372
I5135
sVmountain
p1373
I2990
sVretir
p1374
I3807
sVfeet
p1375
I1647
sVshipmat
p1376
I4067
sVsom
p1377
I4201
sVteen
p1378
I4497
sVfeatur
p1379
I1638
sVyoungest
p1380
I5224
sVwan
p1381
I4942
sVclassic
p1382
I836
sVwowzer
p1383
I5122
sVupset
p1384
I4827
sVnovel
p1385
I3152
sVisrael
p1386
I2385
sVromant
p1387
I3869
sVsale
p1388
I3923
sVwwwthriveaftertheaffaircom
p1389
I5168
sVexist
p1390
I1565
sVtrix
p1391
I4689
sVprayer
p1392
I3533
sVlander
p1393
I2571
sVplan
p1394
I3450
sVquantiti
p1395
I3640
sVmold
p1396
I2949
sVdealer
p1397
I1147
sVshit
p1398
I4069
sVassembl
p1399
I264
sVnj
p1400
I3112
sVsurpris
p1401
I4420
sVtix
p1402
I4607
sVbrowncoat
p1403
I602
sVindex
p1404
I2288
sVmashup
p1405
I2810
sVhttprecipesvangoghvodkacom
p1406
I2195
sVexcel
p1407
I1554
sVactor
p1408
I42
sVtil
p1409
I4594
sVflood
p1410
I1729
sVjona
p1411
I2461
sVrole
p1412
I3866
sVcreep
p1413
I1048
sVnp
p1414
I3162
sVdumpti
p1415
I1380
sVappetit
p1416
I205
sVhangin
p1417
I2024
sVsmell
p1418
I4173
sVhundr
p1419
I2223
sVrealiti
p1420
I3698
sVwellen
p1421
I5000
sVlegitim
p1422
I2627
sVaorund
p1423
I197
sVreadjust
p1424
I3694
sVwing
p1425
I5050
sVjordyn
p1426
I2463
sVdiet
p1427
I1238
sVyahoo
p1428
I5191
sVfell
p1429
I1649
sVintent
p1430
I2339
sVmuse
p1431
I3017
sVconsid
p1432
I962
sVmre
p1433
I2998
sVtwiiter
p1434
I4735
sVcleaver
p1435
I846
sVweekend
p1436
I4992
sVbillion
p1437
I468
sVoutdat
p1438
I3281
sVpersonalti
p1439
I3400
sVreceiv
p1440
I3711
sVrabbit
p1441
I3653
sVfaster
p1442
I1626
sVphone
p1443
I3415
sVhome
p1444
I2138
sVsalt
p1445
I3925
sVyacht
p1446
I5189
sVstale
p1447
I4294
sVted
p1448
I4496
sVrawwrrrzzz
p1449
I3686
sVignor
p1450
I2261
sVplaywork
p1451
I3462
sVovi
p1452
I3298
sVpush
p1453
I3630
sVserious
p1454
I4028
sVciscoiti
p1455
I827
sVdaili
p1456
I1104
sVroh
p1457
I3863
sVbfast
p1458
I455
sVcoach
p1459
I868
sVbroke
p1460
I595
sVchain
p1461
I746
sVwhoever
p1462
I5024
sVskip
p1463
I4135
sVkeep
p1464
I2500
sVcelebr
p1465
I732
sVrod
p1466
I3858
sVfocus
p1467
I1738
sVinvent
p1468
I2358
sVhawaii
p1469
I2052
sVlaura
p1470
I2595
sVknown
p1471
I2543
sVchupa
p1472
I818
sVmile
p1473
I2898
sVmorningoatm
p1474
I2977
sVlfinish
p1475
I2641
sVcarcraz
p1476
I696
sVtommorow
p1477
I4627
sVshot
p1478
I4082
sVchair
p1479
I747
sVovertim
p1480
I3296
sVmilk
p1481
I2900
sVgiiiiiiiiiiiiiiiiilr
p1482
I1882
sVdecid
p1483
I1159
sVblissink
p1484
I498
sVgrape
p1485
I1942
sVzone
p1486
I5245
sVrecruit
p1487
I3720
sVflash
p1488
I1717
sVfather
p1489
I1628
sVsaam
p1490
I3909
sVyoumissy
p1491
I5222
sVcountdown
p1492
I1013
sVgerman
p1493
I1874
sVyummi
p1494
I5235
sVdecis
p1495
I1160
sVvisitor
p1496
I4911
sVhumm
p1497
I2219
sVterror
p1498
I4517
sVdartmouth
p1499
I1125
sVtwitspam
p1500
I4740
sVretreat
p1501
I3808
sVgtlt
p1502
I1970
sVsouthwest
p1503
I4239
sVfandf
p1504
I1612
sVbrown
p1505
I601
sVcoop
p1506
I994
sVminist
p1507
I2911
sVinsignifig
p1508
I2321
sVhannah
p1509
I2026
sVcheap
p1510
I772
sVevangel
p1511
I1529
sVpersona
p1512
I3399
sVtustin
p1513
I4718
sVuncg
p1514
I4780
sVfratelli
p1515
I1782
sVcook
p1516
I989
sVjoin
p1517
I2456
sVamoto
p1518
I152
sVbrows
p1519
I604
sVcool
p1520
I992
sVdim
p1521
I1249
sVbreakfastcheerio
p1522
I572
sVhour
p1523
I2174
sVquestion
p1524
I3645
sVlevel
p1525
I2636
sVdie
p1526
I1236
sVgui
p1527
I1975
sVdig
p1528
I1242
sVbrother
p1529
I599
sVbluesilv
p1530
I517
sVprob
p1531
I3570
sVmagnet
p1532
I2757
sVhttpseodrupalorg
p1533
I2197
sVsoooo
p1534
I4220
sVtheyr
p1535
I4549
sVwooot
p1536
I5089
sVteal
p1537
I4486
sVteam
p1538
I4487
sVcooki
p1539
I990
sVlever
p1540
I2637
sVguy
p1541
I1991
sVtennesse
p1542
I4511
sVround
p1543
I3885
sVsaddam
p1544
I3913
sVolympia
p1545
I3225
sVupper
p1546
I4825
sVpork
p1547
I3507
sVmn
p1548
I2932
sVregret
p1549
I3740
sVmarvin
p1550
I2807
sVpeek
p1551
I3377
sVtrend
p1552
I4678
sVrood
p1553
I3872
sVhtm
p1554
I2184
sVbaku
p1555
I352
sVresourc
p1556
I3793
sVplu
p1557
I3472
sVcosi
p1558
I1006
sVsign
p1559
I4103
sVgrump
p1560
I1968
sVasham
p1561
I252
sVcrescent
p1562
I1049
sVportfolio
p1563
I3510
sVrear
p1564
I3703
sVrepalin
p1565
I3774
sVbake
p1566
I351
sVmolest
p1567
I2950
sVwbal
p1568
I4974
sVafghanistan
p1569
I73
sVblogmight
p1570
I506
sVbloodsuck
p1571
I512
sVmister
p1572
I2923
sVwut
p1573
I5134
sVyoga
p1574
I5215
sVunbox
p1575
I4779
sVpresidenttalk
p1576
I3552
sVrome
p1577
I3870
sVcurrent
p1578
I1089
sVxander
p1579
I5175
sVsinc
p1580
I4116
sVhealth
p1581
I2066
sVsuspect
p1582
I4425
sVsomalia
p1583
I4202
sVboost
p1584
I534
sVdental
p1585
I1195
sVgawd
p1586
I1850
sVburn
p1587
I629
sVhart
p1588
I2040
sVbandwagon
p1589
I361
sVpmt
p1590
I3477
sVosmosi
p1591
I3274
sVconservativ
p1592
I961
sVgener
p1593
I1865
sVnovato
p1594
I3151
sVonli
p1595
I3237
sVfrench
p1596
I1793
sVyouyour
p1597
I5230
sVsatisfi
p1598
I3945
sVwbaggi
p1599
I4973
sVchilton
p1600
I797
sVentertain
p1601
I1489
sVjuri
p1602
I2481
sVaddress
p1603
I51
sVlocat
p1604
I2692
sValong
p1605
I134
sVteacher
p1606
I4484
sVwait
p1607
I4931
sVbox
p1608
I553
sVboy
p1609
I554
sVtwist
p1610
I4738
sVtire
p1611
I4605
sVshove
p1612
I4088
sVcanadian
p1613
I678
sVbrilliant
p1614
I582
sVroot
p1615
I3878
sVbangl
p1616
I366
sVworldwid
p1617
I5109
sVstep
p1618
I4323
sVbow
p1619
I551
sVbehav
p1620
I431
sVbon
p1621
I530
sVtwitterfon
p1622
I4746
sVhealthi
p1623
I2067
sVphew
p1624
I3410
sVbob
p1625
I522
sVconvertor
p1626
I987
sVboe
p1627
I526
sVsqueez
p1628
I4281
sVugh
p1629
I4764
sVredicul
p1630
I3726
sVwinner
p1631
I5052
sVelect
p1632
I1435
sVmechant
p1633
I2845
sVextra
p1634
I1581
sVanaloghol
p1635
I156
sVjar
p1636
I2420
sVbs
p1637
I607
sVprefer
p1638
I3539
sVupstair
p1639
I4829
sVuneduc
p1640
I4791
sVinfinitetravelytb
p1641
I2303
sVsnl
p1642
I4185
sVwatford
p1643
I4965
sVseattl
p1644
I3989
sVtweat
p1645
I4723
sVfake
p1646
I1599
sVinstal
p1647
I2325
sVfbi
p1648
I1637
sVmobil
p1649
I2935
sVgatekeep
p1650
I1846
sVmarket
p1651
I2795
sVbloodi
p1652
I511
sVyourself
p1653
I5225
sVcreami
p1654
I1039
sVstey
p1655
I4332
sVnewslett
p1656
I3092
sVwealth
p1657
I4976
sVlighthous
p1658
I2659
sVaye
p1659
I333
sVhyatt
p1660
I2238
sVdude
p1661
I1372
sVoreilli
p1662
I3260
sVprop
p1663
I3599
sVeverybodi
p1664
I1537
sVlive
p1665
I2683
sVos
p1666
I3272
sVmortgag
p1667
I2980
sVgamestop
p1668
I1839
sVprez
p1669
I3556
sVmsg
p1670
I3001
sVsuppos
p1671
I4414
sVaustralian
p1672
I301
sVswagger
p1673
I4432
sVcheckout
p1674
I778
sVprep
p1675
I3542
sVtoday
p1676
I4613
sVpearlcium
p1677
I3374
sVlaught
p1678
I2591
sVnotic
p1679
I3145
sVriot
p1680
I3834
sVclub
p1681
I862
sVmidseptemb
p1682
I2891
sVintrigu
p1683
I2353
sVluve
p1684
I2740
sVclue
p1685
I863
sVdowntown
p1686
I1336
sVbrideher
p1687
I578
sVteaser
p1688
I4489
sVdrown
p1689
I1360
sVkerri
p1690
I2511
sVoop
p1691
I3242
sVrodney
p1692
I3860
sVventur
p1693
I4875
sVeffort
p1694
I1423
sVpiano
p1695
I3422
sVstringer
p1696
I4359
sVreligi
p1697
I3756
sVfirstev
p1698
I1705
sVjlpt
p1699
I2446
sVgraphic
p1700
I1943
sVpeaceonedayorg
p1701
I3371
sVibm
p1702
I2246
sVtokyo
p1703
I4620
sVcar
p1704
I694
sVprepar
p1705
I3543
sVimmacul
p1706
I2270
sVbattl
p1707
I396
sVfocu
p1708
I1737
sVcat
p1709
I720
sVfli
p1710
I1723
sVsoup
p1711
I4234
sVhttpjeremyrwelchcom
p1712
I2189
sVwhatev
p1713
I5013
sVwasherdry
p1714
I4953
sVcal
p1715
I658
sVrenew
p1716
I3768
sVhomethank
p1717
I2144
sVpurpos
p1718
I3628
sVstewarthilari
p1719
I4331
sVcad
p1720
I649
sVclaim
p1721
I834
sVfabul
p1722
I1585
sVstream
p1723
I4353
sVpredict
p1724
I3538
sVinterenet
p1725
I2341
sVchip
p1726
I800
sVheatwav
p1727
I2075
sVpleeeeaas
p1728
I3468
sVconfused
p1729
I953
sVsake
p1730
I3921
sVwrapper
p1731
I5124
sVshoulderac
p1732
I4085
sVheard
p1733
I2070
sVcrazi
p1734
I1037
sVabort
p1735
I14
sVtabl
p1736
I4449
sVstoll
p1737
I4337
sVcouncil
p1738
I1011
sVsharp
p1739
I4054
sVrecycl
p1740
I3723
sVtwighlight
p1741
I4734
sVtoler
p1742
I4622
sVsimul
p1743
I4115
sVoccup
p1744
I3196
sVhrshope
p1745
I2182
sVfinnal
p1746
I1695
sVwwno
p1747
I5136
sVotakumex
p1748
I3277
sVvariou
p1749
I4862
sVsteve
p1750
I4327
sVtube
p1751
I4708
sVdress
p1752
I1349
sVhttpwwwaserogamesblogspotcom
p1753
I2200
sVping
p1754
I3434
sVbega
p1755
I427
sVwrite
p1756
I5128
sValway
p1757
I142
sVsunday
p1758
I4404
sVvital
p1759
I4915
sVanyon
p1760
I193
sVfourth
p1761
I1773
sVresumeani
p1762
I3802
sVnyc
p1763
I3181
sVtskyou
p1764
I4705
sVnya
p1765
I3180
sVpontiu
p1766
I3500
sVnonstop
p1767
I3126
sVhmph
p1768
I2125
sVproduct
p1769
I3580
sVmar
p1770
I2789
sVaoc
p1771
I196
sVobx
p1772
I3192
sVshooter
p1773
I4075
sVcameraphonesplazacom
p1774
I670
sVmax
p1775
I2825
sVdive
p1776
I1281
sVsour
p1777
I4235
sVdaugther
p1778
I1130
sVancestrycom
p1779
I163
sVbrazen
p1780
I568
sVspot
p1781
I4273
sVmac
p1782
I2742
sVbrowni
p1783
I603
sVlaundri
p1784
I2593
sVhailey
p1785
I2004
sVmag
p1786
I2754
sVdate
p1787
I1128
sVshuffl
p1788
I4094
sVsuck
p1789
I4387
sVdove
p1790
I1329
sVgrow
p1791
I1962
sVbrainless
p1792
I562
sVaccessori
p1793
I23
sVclassroom
p1794
I838
sVstress
p1795
I4356
sVnoun
p1796
I3149
sVhttpwwwshadowshopscom
p1797
I2210
sVfour
p1798
I1772
sVconscious
p1799
I959
sVmuzik
p1800
I3020
sVunseason
p1801
I4810
sVfavorit
p1802
I1634
sVconfreak
p1803
I951
sVfine
p1804
I1689
sVoffens
p1805
I3206
sVinform
p1806
I2306
sVsi
p1807
I4097
sVpreced
p1808
I3536
sVmanana
p1809
I2779
sVdeposit
p1810
I1201
sVlagoon
p1811
I2564
sVnowtopia
p1812
I3160
sVoffend
p1813
I3205
sVsumner
p1814
I4402
sVwrist
p1815
I5126
sVwebstart
p1816
I4986
sVmichel
p1817
I2882
sVvike
p1818
I4896
sVcute
p1819
I1095
sVlse
p1820
I2730
sVlifeand
p1821
I2652
sVanticip
p1822
I185
sVfood
p1823
I1746
sVrssumhm
p1824
I3893
sVcolt
p1825
I892
sVhaircut
p1826
I2006
sVapprov
p1827
I216
sVspreadsheet
p1828
I4275
sVbrain
p1829
I561
sVscam
p1830
I3958
sVoccasion
p1831
I3195
sVpitch
p1832
I3439
sVequip
p1833
I1498
sVcold
p1834
I880
sVbasicnet
p1835
I388
sVowl
p1836
I3300
sVworship
p1837
I5113
sVequiv
p1838
I1499
sVethic
p1839
I1519
sVreinforc
p1840
I3747
sVbronco
p1841
I597
sVdisconnect
p1842
I1263
sVmonitor
p1843
I2960
sVpolici
p1844
I3491
sVoakley
p1845
I3183
sVtexa
p1846
I4520
sVtie
p1847
I4588
sVarggghh
p1848
I229
sVwindow
p1849
I5048
sVliquid
p1850
I2674
sVthanx
p1851
I4531
sVwassila
p1852
I4957
sVmail
p1853
I2759
sVmediocr
p1854
I2851
sVmain
p1855
I2762
sVnouveau
p1856
I3150
sVoffici
p1857
I3210
sVhoneymoon
p1858
I2149
sVhmmnow
p1859
I2124
sVcivilian
p1860
I833
sVdslrmost
p1861
I1367
sVfinanci
p1862
I1687
sVkiller
p1863
I2522
sVinsomnia
p1864
I2322
sVavenuehificom
p1865
I314
sVnation
p1866
I3049
sVdisloc
p1867
I1271
sVinterview
p1868
I2351
sVtaliban
p1869
I4460
sVtonit
p1870
I4635
sVgate
p1871
I1845
sVppl
p1872
I3526
sVxaimenreadi
p1873
I5174
sVdiscuss
p1874
I1266
sVwont
p1875
I5080
sVvikingspack
p1876
I4897
sVterm
p1877
I4514
sVvoltag
p1878
I4921
sVnetwok
p1879
I3081
sVname
p1880
I3038
sVawardwin
p1881
I324
sVmeatbal
p1882
I2844
sVsopor
p1883
I4225
sVdrop
p1884
I1359
sVsuckedwhat
p1885
I4388
sVsepar
p1886
I4022
sVdidw
p1887
I1235
sVpeasant
p1888
I3375
sVmassachusett
p1889
I2813
sVbangcock
p1890
I364
sVrock
p1891
I3854
sVthur
p1892
I4582
sVjanuari
p1893
I2417
sVbrodi
p1894
I593
sVstatehous
p1895
I4310
sVcompil
p1896
I927
sVel
p1897
I1432
sVeo
p1898
I1495
sVeh
p1899
I1427
sVracial
p1900
I3657
sVee
p1901
I1419
sVed
p1902
I1414
sVindividu
p1903
I2294
sVcontinu
p1904
I976
sVec
p1905
I1410
sVseecamp
p1906
I3995
sVensur
p1907
I1486
sVvogler
p1908
I4919
sVshouldnt
p1909
I4086
sVex
p1910
I1548
sVbegun
p1911
I430
sVyear
p1912
I5205
sVdistributor
p1913
I1278
sVet
p1914
I1515
sVgirl
p1915
I1885
sVyeah
p1916
I5203
sVmommi
p1917
I2955
sVscion
p1918
I3970
sValbum
p1919
I119
sVrandomli
p1920
I3679
sVaccomplish
p1921
I26
sVjackson
p1922
I2409
sVtwitterland
p1923
I4749
sVrecuper
p1924
I3721
sVprofit
p1925
I3584
sVwooo
p1926
I5086
sVthirst
p1927
I4558
sVopenen
p1928
I3245
sVprofil
p1929
I3583
sVmess
p1930
I2869
sVbailout
p1931
I350
sVtrauma
p1932
I4673
sVmagazin
p1933
I2755
sVskylin
p1934
I4139
sVinternet
p1935
I2347
sVuncl
p1936
I4782
sVroger
p1937
I3861
sVwwwecosafecom
p1938
I5140
sVsensor
p1939
I4016
sVcorrect
p1940
I1003
sVintegr
p1941
I2334
sVfiddl
p1942
I1665
sVdiseas
p1943
I1268
sVposer
p1944
I3514
sVmonster
p1945
I2962
sVstate
p1946
I4308
sVporto
p1947
I3511
sVcontain
p1948
I971
sVtheyv
p1949
I4550
sVargu
p1950
I232
sVargh
p1951
I230
sVajax
p1952
I108
sVcalifornia
p1953
I663
sVadsurfzon
p1954
I60
sVsuccess
p1955
I4385
sVori
p1956
I3267
sVcarb
p1957
I695
sVorg
p1958
I3261
sVgateway
p1959
I1848
sVkeith
p1960
I2504
sVsaeam
p1961
I3916
sVcard
p1962
I697
sVcare
p1963
I698
sVfunki
p1964
I1822
sVtextbook
p1965
I4522
sVbefor
p1966
I425
sVprescrib
p1967
I3546
sVdunno
p1968
I1382
sVreschedul
p1969
I3785
sVxfile
p1970
I5179
sVfb
p1971
I1636
sVbritish
p1972
I587
sVhonest
p1973
I2147
sVrecov
p1974
I3719
sVthing
p1975
I4551
sVchillax
p1976
I794
sVwifethi
p1977
I5038
sVplace
p1978
I3445
sVgordon
p1979
I1922
sVyr
p1980
I5231
sVministri
p1981
I2912
sVmikebon
p1982
I2897
sVstateekk
p1983
I4309
sVglobal
p1984
I1898
sVneglect
p1985
I3069
sVfirst
p1986
I1704
sVblind
p1987
I496
sVsanchez
p1988
I3931
sVsrbn
p1989
I4285
sVnumb
p1990
I3168
sVsemiretir
p1991
I4010
sVcarri
p1992
I712
sVlone
p1993
I2702
sVcoffeene
p1994
I877
sVbeverag
p1995
I453
sVhowwhi
p1996
I2179
sVlimey
p1997
I2663
sVpizza
p1998
I3442
sVshout
p1999
I4087
sVmignon
p2000
I2893
sVlong
p2001
I2703
sVfi
p2002
I1659
sVoppos
p2003
I3251
sVacct
p2004
I30
sVring
p2005
I3833
sVhappi
p2006
I2028
sVopen
p2007
I3244
sVtomorrow
p2008
I4628
sVont
p2009
I3239
sVsize
p2010
I4131
sVbrochur
p2011
I592
sVpoughkeepsi
p2012
I3521
sVgiven
p2013
I1890
sVian
p2014
I2244
sVsheet
p2015
I4059
sVconvent
p2016
I984
sVstuck
p2017
I4368
sVfacebooktwitt
p2018
I1588
sVcaught
p2019
I727
sVslept
p2020
I4149
sVevain
p2021
I1527
sVcircu
p2022
I825
sVtraction
p2023
I4662
sVciti
p2024
I829
sVsilenc
p2025
I4107
sVmccartney
p2026
I2833
sVsickli
p2027
I4099
sVaverag
p2028
I315
sVthru
p2029
I4578
sVseriou
p2030
I4027
sVconveni
p2031
I983
sVsurgeri
p2032
I4419
sVfriend
p2033
I1795
sVrecess
p2034
I3713
sVbriton
p2035
I588
sVholdem
p2036
I2130
sVwmsft
p2037
I5068
sVhttpmonroeinfoblogblogspotcom
p2038
I2194
sVradiohead
p2039
I3661
sVespeci
p2040
I1510
sVprovinc
p2041
I3607
sVseason
p2042
I3988
sVhun
p2043
I2222
sVcopi
p2044
I997
sVhuh
p2045
I2216
sVtonighttak
p2046
I4634
sVrelationship
p2047
I3751
sVeagl
p2048
I1394
sVbroadcast
p2049
I590
sVqual
p2050
I3636
sVwwwspamcampcom
p2051
I5162
sVlogist
p2052
I2696
sVmostli
p2053
I2981
sVbutt
p2054
I639
sVdomin
p2055
I1312
sVrecouper
p2056
I3718
sVholder
p2057
I2131
sVindiscreetisnt
p2058
I2293
sVtwit
p2059
I4739
sVdeafen
p2060
I1145
sVserv
p2061
I4030
sVwat
p2062
I4960
sVthrown
p2063
I4577
sVwendilyn
p2064
I5003
sVinstanc
p2065
I2326
sVspokeo
p2066
I4270
sVconglomer
p2067
I954
sVrehab
p2068
I3744
sVapplet
p2069
I210
sVcrumpl
p2070
I1064
sVyearsliterallyand
p2071
I5206
sVbalanc
p2072
I353
sVverb
p2073
I4876
sVposit
p2074
I3515
sVinscrib
p2075
I2318
sVworcest
p2076
I5091
sVcreamstonyfield
p2077
I1040
sVrussia
p2078
I3905
sVsophia
p2079
I4224
sVseri
p2080
I4026
sVpre
p2081
I3534
sVfork
p2082
I1759
sVsan
p2083
I3930
sVangel
p2084
I169
sVcraig
p2085
I1028
sVpro
p2086
I3569
sVpri
p2087
I3557
sVani
p2088
I172
sVreno
p2089
I3769
sVsad
p2090
I3912
sValleg
p2091
I126
sVanu
p2092
I188
sVhimself
p2093
I2111
sVaustinbridalsecretscom
p2094
I300
sVdeliv
p2095
I1181
sVwon
p2096
I5076
sVbreakfast
p2097
I571
sVsap
p2098
I3936
sVsaw
p2099
I3952
sVwell
p2100
I4999
sVkevin
p2101
I2512
sVlinz
p2102
I2672
sVimplod
p2103
I2274
sVmsi
p2104
I3002
sVengin
p2105
I1478
sVtechniqu
p2106
I4493
sVadvic
p2107
I65
sVbabysit
p2108
I338
sVwoot
p2109
I5090
sVoffer
p2110
I3207
sVtweetsaw
p2111
I4730
sVeditin
p2112
I1417
sVnote
p2113
I3142
sVomfg
p2114
I3229
sVideal
p2115
I2255
sVjefferson
p2116
I2431
sVtake
p2117
I4456
sVadvis
p2118
I66
sVattackworhthi
p2119
I286
sVfunniest
p2120
I1824
sVgmail
p2121
I1902
sVnoth
p2122
I3143
sVchannel
p2123
I758
sVbradi
p2124
I559
sVsurf
p2125
I4417
sVcloser
p2126
I858
sVbegin
p2127
I428
sVarmando
p2128
I236
sVpain
p2129
I3311
sVnorman
p2130
I3133
sVtrace
p2131
I4659
sVnormal
p2132
I3132
sVtornado
p2133
I4645
sVunsuccess
p2134
I4813
sVprice
p2135
I3558
sVknew
p2136
I2538
sVutmost
p2137
I4846
sVpaid
p2138
I3310
sVtalk
p2139
I4461
sVovarian
p2140
I3289
sVassault
p2141
I263
sVwire
p2142
I5054
sVapocalyps
p2143
I200
sVconnor
p2144
I958
sVpair
p2145
I3314
sVknee
p2146
I2537
sVamerica
p2147
I149
sVswing
p2148
I4440
sVtenn
p2149
I4510
sVrealityshow
p2150
I3699
sVcuban
p2151
I1077
sVretardid
p2152
I3804
sVwhitewat
p2153
I5021
sVluv
p2154
I2739
sVaisha
p2155
I107
sVfinetun
p2156
I1690
sVadopt
p2157
I57
sVvisual
p2158
I4914
sVdrive
p2159
I1356
sVorder
p2160
I3258
sVyoutub
p2161
I5227
sVreaction
p2162
I3690
sVflawlessli
p2163
I1721
sVlink
p2164
I2670
sVsenior
p2165
I4014
sVbabbl
p2166
I335
sVhungri
p2167
I2225
sVbabbo
p2168
I336
sVshop
p2169
I4076
sVseminargood
p2170
I4009
sVmisread
p2171
I2918
sVset
p2172
I4035
sVshow
p2173
I4089
sVcheat
p2174
I775
sVpartnersteam
p2175
I3346
sVconcomit
p2176
I942
sVinfant
p2177
I2300
sVvoter
p2178
I4924
sVrobyn
p2179
I3853
sVrussian
p2180
I3906
sVbright
p2181
I581
sVshoe
p2182
I4072
sVnlg
p2183
I3114
sVhack
p2184
I1998
sVthreshold
p2185
I4571
sVcorner
p2186
I1000
sVhttpmarketwithauthorityblogspotcom
p2187
I2192
sVline
p2188
I2666
sVhustler
p2189
I2232
sVground
p2190
I1960
sVaint
p2191
I102
sVitun
p2192
I2399
sVslow
p2193
I4160
sVnnalso
p2194
I3115
sVgulf
p2195
I1985
sVoneiti
p2196
I3235
sVtrue
p2197
I4694
sVdick
p2198
I1232
sVactiv
p2199
I40
sVenough
p2200
I1485
sVcrime
p2201
I1053
sVmccain
p2202
I2832
sVfantasssssst
p2203
I1616
sVquickest
p2204
I3647
sVblack
p2205
I484
sVhockey
p2206
I2127
sVthemselv
p2207
I4542
sVunravel
p2208
I4808
sVanalyt
p2209
I159
sVobsess
p2210
I3190
sVcarolina
p2211
I709
sVjosiah
p2212
I2466
sVover
p2213
I3290
sVwolfgang
p2214
I5072
sVnearli
p2215
I3064
sVhungarian
p2216
I2224
sVsawan
p2217
I3953
sVagnst
p2218
I86
sVnobl
p2219
I3116
sVvidio
p2220
I4893
sVoutlet
p2221
I3286
sVmope
p2222
I2973
sVeurythm
p2223
I1525
sVtrade
p2224
I4663
sVgeo
p2225
I1871
sVrequir
p2226
I3784
sVbossprolli
p2227
I542
sVcuttingedg
p2228
I1096
sVmediac
p2229
I2847
sVpimp
p2230
I3432
sVartist
p2231
I248
sVleather
p2232
I2616
sVpf
p2233
I3405
sVmedian
p2234
I2848
sVborrow
p2235
I540
sVfahndrich
p2236
I1593
sVexpedi
p2237
I1569
sVstupid
p2238
I4374
sVbison
p2239
I479
sVsettinga
p2240
I4037
sVthough
p2241
I4567
sVshoesegg
p2242
I4073
sVlondon
p2243
I2701
sVlaptopmi
p2244
I2574
sVbdub
p2245
I403
sVcheerlead
p2246
I781
sVwoke
p2247
I5071
sVhusband
p2248
I2230
sVdoingb
p2249
I1307
sVconcert
p2250
I940
sVespn
p2251
I1511
sVshankman
p2252
I4049
sVhttpwwwpilotsystemsnet
p2253
I2208
sVspore
p2254
I4272
sVunbear
p2255
I4776
sVunbelievablei
p2256
I4777
sVwwwvideocopilotcom
p2257
I5171
sVmoodblast
p2258
I2968
sVkel
p2259
I2505
sVasleep
p2260
I259
sVhell
p2261
I2085
sVreserv
p2262
I3788
sVprogress
p2263
I3588
sVcalendar
p2264
I661
sVur
p2265
I4830
sVcurch
p2266
I1086
sVconcern
p2267
I939
sVum
p2268
I4772
sVdexter
p2269
I1226
sVtelevis
p2270
I4502
sVsteadfast
p2271
I4317
sVinnov
p2272
I2313
sVreview
p2273
I3816
sVforecast
p2274
I1753
sVmiiami
p2275
I2895
sVbehind
p2276
I432
sVwayn
p2277
I4970
sVrail
p2278
I3665
sVbetween
p2279
I452
sVimport
p2280
I2275
sVscreen
p2281
I3978
sVnakhon
p2282
I3037
sVplanogram
p2283
I3453
sVaugust
p2284
I296
sVparent
p2285
I3330
sVkool
p2286
I2547
sVcomp
p2287
I917
sVjv
p2288
I2484
sVmtm
p2289
I3004
sVleafblow
p2290
I2610
sVsupermarket
p2291
I4407
sVguitar
p2292
I1984
sVcycl
p2293
I1099
sVjn
p2294
I2447
sVcomm
p2295
I902
sVjj
p2296
I2445
sVjd
p2297
I2428
sVhudson
p2298
I2214
sVcome
p2299
I898
sVja
p2300
I2404
sVjb
p2301
I2425
sVjc
p2302
I2426
sVbeliv
p2303
I437
sVuseless
p2304
I4836
sVlistnin
p2305
I2679
sVvista
p2306
I4912
sVnifti
p2307
I3107
sVrippl
p2308
I3836
sVjob
p2309
I2448
sVcontract
p2310
I977
sVaudienc
p2311
I293
sVcolumnist
p2312
I894
sVsustain
p2313
I4426
sVmani
p2314
I2780
sVshare
p2315
I4052
sVevict
p2316
I1542
sVmotorcyl
p2317
I2989
sVcancer
p2318
I680
sVcolor
p2319
I889
sVinspir
p2320
I2323
sVperiod
p2321
I3395
sVpop
p2322
I3504
sVfirewalk
p2323
I1701
sVduti
p2324
I1388
sVtwim
p2325
I4736
sVtwin
p2326
I4737
sVtwitterberri
p2327
I4741
sVcancel
p2328
I679
sVforehand
p2329
I1754
sVnicola
p2330
I3105
sVpoe
p2331
I3481
sVmembershipfirst
p2332
I2858
sVdamag
p2333
I1110
sVguilliani
p2334
I1982
sVultim
p2335
I4771
sVcoupl
p2336
I1017
sVresort
p2337
I3792
sVstretch
p2338
I4357
sVwest
p2339
I5007
sVsuicid
p2340
I4397
sVhttpwwwmusicworkxcom
p2341
I2207
sVmark
p2342
I2794
sVbreath
p2343
I573
sVprime
p2344
I3561
sVgatesseinfeld
p2345
I1847
sVred
p2346
I3725
sVrungay
p2347
I3901
sVralli
p2348
I3672
sVbarri
p2349
I382
sVrebuilt
p2350
I3708
sVcertifi
p2351
I743
sVcrawford
p2352
I1036
sVfinial
p2353
I1692
sVwant
p2354
I4944
sVdetach
p2355
I1217
sVspare
p2356
I4248
sVphotog
p2357
I3417
sVitodd
p2358
I2395
sVsmo
p2359
I4177
sVfoggi
p2360
I1740
sVthousand
p2361
I4569
sVandrew
p2362
I165
sVccfa
p2363
I729
sVspree
p2364
I4276
sVtiki
p2365
I4593
sVlaptopp
p2366
I2575
sVwake
p2367
I4934
sVbmw
p2368
I519
sVroston
p2369
I3884
sVyaarssssssssss
p2370
I5188
sVquick
p2371
I3646
sVaaagh
p2372
I2
sVfl
p2373
I1715
sVdelici
p2374
I1178
sVthose
p2375
I4566
sVpilot
p2376
I3431
sVcase
p2377
I716
sVmyself
p2378
I3022
sVsoccer
p2379
I4189
sVcrumb
p2380
I1063
sVsit
p2381
I4125
sVreplac
p2382
I3776
sVseptemb
p2383
I4025
sVmayorship
p2384
I2830
sVplugin
p2385
I3474
sVle
p2386
I2606
sVcash
p2387
I717
sVsinclair
p2388
I4117
sVtrick
p2389
I4684
sVcast
p2390
I718
sVsemest
p2391
I4007
sVoutcom
p2392
I3280
sVlunchtim
p2393
I2737
sVhttpsecretstofastweightlossinfo
p2394
I2196
sVhmmmm
p2395
I2121
sVcock
p2396
I873
sVbluecollar
p2397
I515
sVcoolest
p2398
I993
sVbuckhead
p2399
I613
sVtheocraci
p2400
I4544
sVive
p2401
I2402
sVivf
p2402
I2403
sVyouv
p2403
I5228
sVturn
p2404
I4716
sVcanon
p2405
I685
sVconvinc
p2406
I988
sVupdatessupposedli
p2407
I4821
sVquiet
p2408
I3650
sVcluster
p2409
I864
sVpuresafebenefici
p2410
I3624
sVbias
p2411
I456
sVwwwnixthenewscom
p2412
I5157
sVwebdev
p2413
I4982
sVoutrag
p2414
I3287
sVkenya
p2415
I2509
sVprotein
p2416
I3603
sVyep
p2417
I5208
sVeveryday
p2418
I1538
sVsmalltalk
p2419
I4166
sVindianapoli
p2420
I2292
sVway
p2421
I4969
sVhelmet
p2422
I2087
sVdevelop
p2423
I1221
sVharsh
p2424
I2038
sVauthor
p2425
I302
sVmedia
p2426
I2846
sVmedic
p2427
I2849
sVeconom
p2428
I1411
sVsame
p2429
I3927
sVcheck
p2430
I776
sVhttpsurfdogsenvironmentalinitiativesblogspotcom
p2431
I2198
sVethiopia
p2432
I1520
sVhkg
p2433
I2118
sVhtml
p2434
I2185
sVspeech
p2435
I4255
sVphil
p2436
I3411
sVsucker
p2437
I4389
sVdamon
p2438
I1113
sVtool
p2439
I4639
sVdocument
p2440
I1298
sVpoliticalworld
p2441
I3494
sVworkout
p2442
I5100
sVweek
p2443
I4991
sVexhaust
p2444
I1564
sVfinish
p2445
I1693
sVsee
p2446
I3994
sVtwitterus
p2447
I4752
sVassist
p2448
I266
sVsomeon
p2449
I4205
sVweed
p2450
I4990
sVdirector
p2451
I1256
sVbulletproof
p2452
I621
sVfruit
p2453
I1803
sVbarber
p2454
I373
sVmockeri
p2455
I2937
sVextern
p2456
I1580
sVtheyll
p2457
I4548
sVcartoon
p2458
I715
sVyy
p2459
I5238
sVitalyclean
p2460
I2391
sVdrain
p2461
I1338
sVburrito
p2462
I630
sVdentistin
p2463
I1197
sVstyletim
p2464
I4376
sVwwwmakeitraincouk
p2465
I5150
sVthroat
p2466
I4573
sVgeniu
p2467
I1868
sVhubbi
p2468
I2213
sVremain
p2469
I3760
sVtimestudi
p2470
I4601
sVparodi
p2471
I3335
sVshitwhich
p2472
I4070
sVblogswhi
p2473
I508
sVdemean
p2474
I1186
sVna
p2475
I3028
sVsomebodi
p2476
I4203
sVmodel
p2477
I2940
sVncea
p2478
I3057
sVishin
p2479
I2380
sVseodrup
p2480
I4020
sVjanet
p2481
I2415
sVsituat
p2482
I4129
sVexecut
p2483
I1562
sVwale
p2484
I4936
sVya
p2485
I5186
sVmoney
p2486
I2958
sVneon
p2487
I3075
sVtryzan
p2488
I4703
sVbueller
p2489
I616
sVva
p2490
I4849
sVsteamer
p2491
I4320
sVelitestupp
p2492
I1449
sVkill
p2493
I2521
sVrouteoff
p2494
I3887
sVfile
p2495
I1675
sVmarcomm
p2496
I2790
sVtouch
p2497
I4649
sVpolish
p2498
I3492
sVflavor
p2499
I1719
sVparlay
p2500
I3333
sVspeed
p2501
I4256
sVucr
p2502
I4762
sVconcentr
p2503
I937
sVindulg
p2504
I2297
sVversu
p2505
I4881
sVdeath
p2506
I1148
sVeurop
p2507
I1523
sVhint
p2508
I2112
sVrose
p2509
I3881
sVexcept
p2510
I1555
sVlittl
p2511
I2682
sVdesktop
p2512
I1213
sVblog
p2513
I503
sVinstrument
p2514
I2331
sVsoninlaw
p2515
I4215
sVahhhh
p2516
I95
sVaranceramiccom
p2517
I221
sVexercis
p2518
I1563
sViphoneg
p2519
I2367
sVtuesday
p2520
I4710
sVmomentum
p2521
I2954
sVami
p2522
I151
sVrejoic
p2523
I3748
sVaround
p2524
I239
sVspectacular
p2525
I4254
sVgracelif
p2526
I1931
sVfirebaugh
p2527
I1698
sVtrickl
p2528
I4685
sVamc
p2529
I148
sVsky
p2530
I4137
sVladi
p2531
I2561
sVvirginia
p2532
I4905
sVdart
p2533
I1124
sVdark
p2534
I1120
sVtest
p2535
I4519
sVmoi
p2536
I2945
sVmoo
p2537
I2966
sVcrapicecream
p2538
I1033
sVmom
p2539
I2952
sVdarl
p2540
I1121
sVworld
p2541
I5107
sVsnare
p2542
I4183
sVbrennan
p2543
I574
sVrebecca
p2544
I3706
sVlibray
p2545
I2647
sVlastfm
p2546
I2583
sVdivorc
p2547
I1284
sVns
p2548
I3165
sVblackberri
p2549
I485
sVvend
p2550
I4872
sVditchin
p2551
I1280
sVstationari
p2552
I4313
sVroll
p2553
I3868
sValgerbra
p2554
I123
sVbenefit
p2555
I441
sVmaker
p2556
I2768
sVnose
p2557
I3137
sVparticuarlli
p2558
I3341
sVfalicia
p2559
I1602
sVclaw
p2560
I840
sVwwwhoopclinicscomforum
p2561
I5143
sVmanag
p2562
I2778
sVyboar
p2563
I5199
sVdebut
p2564
I1155
sVmine
p2565
I2910
sVcabl
p2566
I647
sVdoll
p2567
I1309
sVarguement
p2568
I233
sVmuscl
p2569
I3016
sVewww
p2570
I1545
sVgranit
p2571
I1940
sVonto
p2572
I3241
sVoffsit
p2573
I3211
sVsen
p2574
I4011
sVabccom
p2575
I10
sVmusician
p2576
I3019
sVconstitut
p2577
I966
sVfanat
p2578
I1611
sVahhhhhh
p2579
I96
sVspasm
p2580
I4249
sVseeker
p2581
I3997
sVfreez
p2582
I1791
sVpoll
p2583
I3496
sVmood
p2584
I2967
sVchronicl
p2585
I815
sVeasili
p2586
I1403
sVnoon
p2587
I3128
sVthinge
p2588
I4552
sVdefinit
p2589
I1171
sVlegal
p2590
I2624
sVmoon
p2591
I2970
sVtxting
p2592
I4757
sVmoos
p2593
I2971
sVdeficit
p2594
I1169
sVremind
p2595
I3763
sVnotabl
p2596
I3140
sVwhoop
p2597
I5026
sVrefer
p2598
I3731
sVsmiley
p2599
I4176
sVdresden
p2600
I1348
sVroast
p2601
I3849
sVedgejust
p2602
I1415
sVasap
p2603
I250
sVinternship
p2604
I2348
sVwhose
p2605
I5029
sVelitelik
p2606
I1447
sVgoooooood
p2607
I1920
sVbroken
p2608
I596
sVleadership
p2609
I2609
sVhectic
p2610
I2078
sVaquir
p2611
I217
sVyay
p2612
I5197
sVaduri
p2613
I61
sVpvine
p2614
I3633
sVhadron
p2615
I1999
sVtownimiss
p2616
I4656
sVcomparison
p2617
I921
sVstone
p2618
I4338
sVol
p2619
I3220
sVcentral
p2620
I738
sVwwwlatefragmentcom
p2621
I5147
sVace
p2622
I33
sVibook
p2623
I2247
sVroar
p2624
I3848
sVisland
p2625
I2382
sVoc
p2626
I3193
sVwha
p2627
I5011
sVacm
p2628
I36
sVvictori
p2629
I4890
sVchop
p2630
I807
sVdegre
p2631
I1172
sVintens
p2632
I2338
sVstand
p2633
I4296
sVneighbor
p2634
I3071
sVchow
p2635
I810
sVreenerg
p2636
I3730
sVindustri
p2637
I2298
sVmean
p2638
I2839
sVbackup
p2639
I343
sVstarbuck
p2640
I4299
sVroad
p2641
I3845
sVop
p2642
I3243
sVcheckup
p2643
I779
sVroutin
p2644
I3888
sVrss
p2645
I3892
sVtrenitalia
p2646
I4679
sVeffici
p2647
I1422
sVyoui
p2648
I5220
sVelementari
p2649
I1441
sVyoud
p2650
I5219
sVsurviv
p2651
I4424
sVhomeless
p2652
I2139
sVeinstein
p2653
I1431
sVslguid
p2654
I4150
sVengland
p2655
I1479
sVnurs
p2656
I3172
sVtroll
p2657
I4690
sVrossi
p2658
I3882
sVmental
p2659
I2862
sVstare
p2660
I4300
sVweight
p2661
I4995
sVsprint
p2662
I4279
sVcomplianc
p2663
I932
sVarea
p2664
I227
sVbarco
p2665
I374
sVsquishi
p2666
I4284
sVhey
p2667
I2098
sVlol
p2668
I2698
sVmidnight
p2669
I2890
sVfascin
p2670
I1622
sVprincip
p2671
I3563
sVinterfac
p2672
I2344
sVlow
p2673
I2727
sVlot
p2674
I2718
sVlou
p2675
I2719
sVsubmiss
p2676
I4379
sVheh
p2677
I2081
sVshelli
p2678
I4061
sVfoam
p2679
I1736
sVrogershold
p2680
I3862
sVrelig
p2681
I3755
sVbottl
p2682
I546
sVhard
p2683
I2031
sVelectr
p2684
I1437
sVidea
p2685
I2254
sVyaya
p2686
I5198
sVsadrob
p2687
I3915
sVprocedur
p2688
I3573
sVjeapjack
p2689
I2429
sVhappier
p2690
I2029
sVpodcast
p2691
I3479
sVcategor
p2692
I723
sVconclus
p2693
I941
sVlonger
p2694
I2704
sVfreddi
p2695
I1785
sVpull
p2696
I3618
sVhire
p2697
I2113
sVthechick
p2698
I4537
sVustreamtv
p2699
I4841
sVdirti
p2700
I1259
sVdigsbi
p2701
I1247
sVattaboy
p2702
I284
sVdefault
p2703
I1165
sVvice
p2704
I4887
sVdresss
p2705
I1351
sVstrongeronli
p2706
I4363
sVwoa
p2707
I5069
sVmiguel
p2708
I2894
sVaneurysm
p2709
I168
sVapplecom
p2710
I209
sVmanuel
p2711
I2785
sVembed
p2712
I1460
sVgrass
p2713
I1944
sVdjing
p2714
I1287
sVgone
p2715
I1914
sVac
p2716
I18
sVab
p2717
I6
sVad
p2718
I44
sVcreat
p2719
I1041
sVcinema
p2720
I824
sVcertain
p2721
I742
sVak
p2722
I109
sVforgot
p2723
I1757
sVal
p2724
I111
sVdeep
p2725
I1163
sVfellow
p2726
I1650
sVbritain
p2727
I586
sVar
p2728
I218
sVnooooo
p2729
I3130
sVaw
p2730
I317
sVcultur
p2731
I1081
sVgirlfriend
p2732
I1886
sVocurr
p2733
I3203
sVaz
p2734
I334
sVrussel
p2735
I3904
sVbishop
p2736
I478
sVfilm
p2737
I1678
sVcream
p2738
I1038
sVyoo
p2739
I5216
sVagain
p2740
I79
sVeliteseem
p2741
I1448
sVcollid
p2742
I886
sVheather
p2743
I2074
sVbumpkin
p2744
I624
sVsl
p2745
I4141
sVidiot
p2746
I2257
sVcommiss
p2747
I910
sVpaddl
p2748
I3307
sVupcom
p2749
I4818
sVcompel
p2750
I925
sVforsak
p2751
I1762
sVmarketplac
p2752
I2797
sVnhampshir
p2753
I3100
sVfield
p2754
I1666
sVhousework
p2755
I2176
sVcleanup
p2756
I843
sVhttpwwwdigsbycom
p2757
I2202
sVfriggin
p2758
I1797
sVtrash
p2759
I4672
sVarchitectur
p2760
I225
sVpoor
p2761
I3503
sVpolar
p2762
I3488
sVbrandi
p2763
I565
sVchampionship
p2764
I754
sVgenuin
p2765
I1870
sVfirmwar
p2766
I1703
sVcongress
p2767
I956
sVbioga
p2768
I471
sVshelter
p2769
I4062
sVworkschool
p2770
I5102
sVsfo
p2771
I4046
sVnichol
p2772
I3103
sVfsck
p2773
I1805
sVkeepin
p2774
I2502
sVptown
p2775
I3613
sVtrack
p2776
I4660
sVmankind
p2777
I2782
sVqueensland
p2778
I3644
sVhww
p2779
I2237
sVpeac
p2780
I3370
sVpool
p2781
I3501
sVbrandt
p2782
I566
sVreduc
p2783
I3729
sVrevenu
p2784
I3815
sVpineappl
p2785
I3433
sVlineup
p2786
I2669
sVstudio
p2787
I4371
sVsuprem
p2788
I4415
sVdownfal
p2789
I1332
sVspend
p2790
I4260
sVdirectori
p2791
I1257
sVinvest
p2792
I2359
sVtanner
p2793
I4465
sVvancouv
p2794
I4858
sVkickin
p2795
I2517
sVrossladi
p2796
I3883
sVadam
p2797
I46
sVcastl
p2798
I719
sVmissouri
p2799
I2920
sValright
p2800
I139
sVescap
p2801
I1508
sVrepresent
p2802
I3779
sVsci
p2803
I3968
sVforget
p2804
I1756
sVfounder
p2805
I1770
sVosx
p2806
I3276
sVmacbook
p2807
I2745
sVlack
p2808
I2560
sVdollar
p2809
I1310
sVwindi
p2810
I5047
sVmonth
p2811
I2964
sVunrest
p2812
I4809
sVatlant
p2813
I278
sVconcept
p2814
I938
sVhigher
p2815
I2102
sVabil
p2816
I11
sVparmesan
p2817
I3334
sVdish
p2818
I1269
sVfollow
p2819
I1743
sValt
p2820
I140
sVallergi
p2821
I128
sVwash
p2822
I4951
sVchildren
p2823
I792
sVhmmm
p2824
I2120
sVcroyl
p2825
I1059
sVrd
p2826
I3688
sVdairi
p2827
I1106
sVron
p2828
I3871
sVtx
p2829
I4755
sVre
p2830
I3689
sVgymnast
p2831
I1994
sVincas
p2832
I2281
sVtt
p2833
I4706
sVwhite
p2834
I5020
sVthursday
p2835
I4583
sVarticl
p2836
I247
sVhorn
p2837
I2162
sVaaron
p2838
I4
sVfoster
p2839
I1766
sVmultitask
p2840
I3012
sVpresent
p2841
I3548
sVth
p2842
I4526
sVti
p2843
I4585
sValberta
p2844
I116
sVgimli
p2845
I1883
sVcress
p2846
I1050
sVsc
p2847
I3955
sVtc
p2848
I4481
sVintroduc
p2849
I2354
sVeveryth
p2850
I1540
sVroadway
p2851
I3846
sVrunnin
p2852
I3902
sVfax
p2853
I1635
sVconsum
p2854
I969
sVpple
p2855
I3527
sVsong
p2856
I4212
sVfals
p2857
I1606
sVsoni
p2858
I4214
sVcheckin
p2859
I777
sVfav
p2860
I1631
sVfat
p2861
I1627
sVost
p2862
I3275
sVutil
p2863
I4845
sVrl
p2864
I3843
sVmojitobest
p2865
I2947
sVcandid
p2866
I682
sVfan
p2867
I1610
sVfall
p2868
I1603
sVveri
p2869
I4878
sVnowdoesnt
p2870
I3156
sVticket
p2871
I4587
sVramen
p2872
I3675
sVstrang
p2873
I4348
sVstrand
p2874
I4347
sVoffhat
p2875
I3208
sVshuster
p2876
I4095
sVkfc
p2877
I2515
sVlisp
p2878
I2676
sVwidget
p2879
I5036
sVlist
p2880
I2677
sVlaug
p2881
I2589
sVmd
p2882
I2837
sVmridangam
p2883
I2999
sVdinosaur
p2884
I1253
sVsane
p2885
I3933
sVlisl
p2886
I2675
sVsaudi
p2887
I3949
sVstartin
p2888
I4305
sVsmall
p2889
I4164
sVdoomtre
p2890
I1320
sVstumbl
p2891
I4373
sVfashion
p2892
I1623
sVtribal
p2893
I4682
sVcaplan
p2894
I690
sVstill
p2895
I4334
sVenterpris
p2896
I1488
sVvaleri
p2897
I4855
sVneighborhood
p2898
I3072
sVnona
p2899
I3123
sVten
p2900
I4508
sVharder
p2901
I2032
sVskin
p2902
I4134
sVhaav
p2903
I1996
sVqualifi
p2904
I3638
sVsteeler
p2905
I4322
sVpast
p2906
I3351
sVorgasm
p2907
I3265
sVbiolog
p2908
I472
sVfiber
p2909
I1662
sVdesign
p2910
I1211
sVwwwmiabellascentscom
p2911
I5152
sVpass
p2912
I3348
sVnbc
p2913
I3056
sVfurther
p2914
I1828
sVhairspray
p2915
I2007
sVchaliponga
p2916
I750
sVribbon
p2917
I3821
sVexcit
p2918
I1558
sVummm
p2919
I4775
sVsue
p2920
I4392
sVabc
p2921
I9
sVnano
p2922
I3041
sVclock
p2923
I854
sVstevi
p2924
I4328
sVsection
p2925
I3992
sVdirt
p2926
I1258
sVabl
p2927
I12
sVbrief
p2928
I580
sVcrush
p2929
I1067
sVdelet
p2930
I1176
sVversion
p2931
I4880
sVrun
p2932
I3900
sVuncharacterist
p2933
I4781
sVdeveni
p2934
I1222
sVtooth
p2935
I4640
sVmum
p2936
I3013
sVanniversari
p2937
I174
sVpepraccini
p2938
I3389
sVmovement
p2939
I2993
sVwitchu
p2940
I5061
sVfull
p2941
I1813
sVchristian
p2942
I813
sVrehears
p2943
I3745
sVmull
p2944
I3011
sVpacif
p2945
I3304
sVathiest
p2946
I276
sVballet
p2947
I357
sVrissa
p2948
I3839
sVbeacon
p2949
I406
sVmiddl
p2950
I2888
sVthemself
p2951
I4541
sVexcess
p2952
I1556
sVanswere
p2953
I181
sVmotorcycl
p2954
I2988
sVgoodby
p2955
I1916
sViraq
p2956
I2373
sVmodifi
p2957
I2943
sVlegend
p2958
I2625
sVvalu
p2959
I4856
sVsymbian
p2960
I4442
sVsearch
p2961
I3987
sVpsoriasi
p2962
I3609
sVfianlli
p2963
I1660
sVteeth
p2964
I4499
sVahead
p2965
I93
sVcourthous
p2966
I1020
sVqolostra
p2967
I3635
sVslave
p2968
I4144
sVreason
p2969
I3704
sVobserv
p2970
I3189
sVprior
p2971
I3566
sVamount
p2972
I153
sVarent
p2973
I228
sVskyrocket
p2974
I4140
sVpick
p2975
I3424
sVaction
p2976
I39
sVmoneytoo
p2977
I2959
sVvisit
p2978
I4910
sVinformerci
p2979
I2307
sVmedicin
p2980
I2850
sVrecyclablethank
p2981
I3724
sVgunmet
p2982
I1989
sVlilli
p2983
I2662
sVdepart
p2984
I1199
sVacorn
p2985
I37
sVvid
p2986
I4891
sVguillani
p2987
I1981
sVsawyerp
p2988
I3954
sVvii
p2989
I4895
sVafrica
p2990
I75
sVlayer
p2991
I2600
sVtrail
p2992
I4666
sVyoung
p2993
I5223
sVput
p2994
I3631
sVvip
p2995
I4901
sVyup
p2996
I5237
sVfamili
p2997
I1607
sVsuddenli
p2998
I4390
sVmemor
p2999
I2859
sVselect
p3000
I4002
sVclifford
p3001
I849
sVenvironment
p3002
I1494
sVreallli
p3003
I3702
sVeye
p3004
I1583
sVproceed
p3005
I3574
sVfilmsit
p3006
I1679
sVsilvi
p3007
I4110
sVregist
p3008
I3738
sVtwo
p3009
I4754
sVcoverag
p3010
I1023
sVwwwwhatonearthnextblogspotcom
p3011
I5173
sVmmmmmmmmmmm
p3012
I2931
sVautomata
p3013
I306
sVsplash
p3014
I4267
sVmorn
p3015
I2976
sVpur
p3016
I3622
sVtrip
p3017
I4688
sVvi
p3018
I4884
sVtaken
p3019
I4457
sVcookin
p3020
I991
sVhurrah
p3021
I2227
sVmore
p3022
I2975
sVreattach
p3023
I3705
sVflat
p3024
I1718
sValreadygah
p3025
I138
sVbrogger
p3026
I594
sVdoor
p3027
I1321
sVwelfar
p3028
I4998
sVagnostic
p3029
I85
sVfreelanc
p3030
I1789
sVplagarismi
p3031
I3448
sVautovault
p3032
I308
sVfloyd
p3033
I1733
sVstick
p3034
I4333
sVclassmat
p3035
I837
sVnenva
p3036
I3074
sVforeverdun
p3037
I1755
sVplin
p3038
I3470
sVcompani
p3039
I919
sVoman
p3040
I3227
sVcach
p3041
I648
sVglad
p3042
I1891
sVhummingbirdmedicinecom
p3043
I2220
sVtown
p3044
I4654
sVgrill
p3045
I1957
sVnone
p3046
I3125
sVwwwtwittercommuesli
p3047
I5170
sVdocstoc
p3048
I1296
sVhous
p3049
I2175
sVmaniac
p3050
I2781
sVroosevelt
p3051
I3877
sVguardiancouk
p3052
I1973
sVpellet
p3053
I3380
sVhuge
p3054
I2215
sVmall
p3055
I2773
sVdel
p3056
I1174
sVdem
p3057
I1184
sVlearn
p3058
I2614
sVabandon
p3059
I8
sVmale
p3060
I2771
sVtuaw
p3061
I4707
sVdef
p3062
I1164
sVexplod
p3063
I1576
sVshark
p3064
I4053
sVisp
p3065
I2384
sVprompt
p3066
I3596
sVmyspac
p3067
I3023
sVscan
p3068
I3959
sVwebcastkil
p3069
I4980
sVchalleng
p3070
I752
sVregistr
p3071
I3739
sVemiss
p3072
I1464
sVtemplat
p3073
I4506
sVwwwmymissionfulfilledcom
p3074
I5153
sVautumn
p3075
I309
sVbiden
p3076
I460
sVregainnam
p3077
I3735
sVsourc
p3078
I4236
sVrainstorm
p3079
I3669
sVawayand
p3080
I326
sVexplor
p3081
I1577
sVpartner
p3082
I3344
sVphrase
p3083
I3421
sVfrappamachino
p3084
I1781
sVatent
p3085
I274
sValbu
p3086
I118
sVdorito
p3087
I1323
sVmainstream
p3088
I2763
sVcsm
p3089
I1073
sVglori
p3090
I1899
sVtriathlon
p3091
I4681
sVcours
p3092
I1018
sVcourt
p3093
I1019
sVsaulo
p3094
I3950
sVshezk
p3095
I4063
sVanoth
p3096
I178
sVcomfort
p3097
I901
sVsmse
p3098
I4181
sVperhap
p3099
I3394
sVdivis
p3100
I1283
sVsix
p3101
I4130
sVyork
p3102
I5217
sVish
p3103
I2379
sVwhore
p3104
I5028
sVinan
p3105
I2277
sVbuzzword
p3106
I643
sVsimpl
p3107
I4113
sVtrim
p3108
I4686
sVidaho
p3109
I2253
sVsambo
p3110
I3926
sVsandwich
p3111
I3932
sVokay
p3112
I3218
sVovercommit
p3113
I3293
sVhttpwwwrenorealtyblogcom
p3114
I2209
sVpye
p3115
I3634
sVbrett
p3116
I575
sVjobkeeo
p3117
I2449
sVcatalog
p3118
I721
sVplane
p3119
I3451
sVembrac
p3120
I1461
sVblood
p3121
I510
sVff
p3122
I1657
sVspannend
p3123
I4247
sVbackyard
p3124
I344
sVtoothach
p3125
I4641
sVassoci
p3126
I267
sVflutter
p3127
I1735
sVvintag
p3128
I4900
sVincapac
p3129
I2280
sVstabil
p3130
I4288
sVshort
p3131
I4081
sVlhc
p3132
I2642
sVjuic
p3133
I2475
sVtwitterbug
p3134
I4742
sVhershey
p3135
I2096
sVcoat
p3136
I872
sVdoctor
p3137
I1297
sVspank
p3138
I4246
sVmeat
p3139
I2843
sVcaus
p3140
I728
sVcallback
p3141
I666
sVshore
p3142
I4080
sVdread
p3143
I1345
sVpay
p3144
I3362
sVwhynotcdn
p3145
I5030
sVdream
p3146
I1346
sVoat
p3147
I3184
sVphotoshop
p3148
I3419
sVhttplogoncompt
p3149
I2190
sVhelp
p3150
I2088
sVith
p3151
I2393
sVpant
p3152
I3322
sVerod
p3153
I1504
sVsometim
p3154
I4207
sVsooo
p3155
I4219
sVsoon
p3156
I4218
sVbrit
p3157
I585
sVwwwangelsinbroadstairscouk
p3158
I5137
sVoctob
p3159
I3201
sVisnt
p3160
I2383
sVpaper
p3161
I3323
sVthrough
p3162
I4574
sVtruli
p3163
I4695
sVbrim
p3164
I583
sVitv
p3165
I2400
sVbroadway
p3166
I591
sVpolicemen
p3167
I3490
sVhumid
p3168
I2218
sVislam
p3169
I2381
sVstyle
p3170
I4375
sVblast
p3171
I490
sVshopper
p3172
I4078
sVeverday
p3173
I1534
sVpray
p3174
I3532
sVsonybmg
p3175
I4216
sVjustic
p3176
I2482
sVlate
p3177
I2584
sVfeel
p3178
I1646
sVpend
p3179
I3382
sVopposit
p3180
I3252
sVbummer
p3181
I623
sVfamou
p3182
I1609
sVstephen
p3183
I4324
sVworkuntil
p3184
I5104
sVbout
p3185
I550
sVmargarita
p3186
I2791
sVhttpwwwanimalcorralcom
p3187
I2199
sVworkoutschool
p3188
I5101
sVfool
p3189
I1747
sVgood
p3190
I1915
sVreturn
p3191
I3810
sVyo
p3192
I5214
sVxolaptop
p3193
I5181
sVceo
p3194
I739
sVsentenc
p3195
I4018
sVgadget
p3196
I1832
sVlargest
p3197
I2577
sVsatsscaryy
p3198
I3946
sVnaco
p3199
I3030
sVwwwinternetmarketingcashblogspotcom
p3200
I5145
sVcollin
p3201
I887
sVolivia
p3202
I3223
sVrank
p3203
I3680
sVst
p3204
I4286
sVfoot
p3205
I1748
sVmagic
p3206
I2756
sVys
p3207
I5232
sVadventur
p3208
I63
sVyu
p3209
I5233
sVcomplain
p3210
I928
sVbigger
p3211
I462
sVmaddow
p3212
I2750
sVnowwork
p3213
I3161
sVbryan
p3214
I606
sVeventu
p3215
I1532
sVwoman
p3216
I5074
sVsignific
p3217
I4105
sVlaggi
p3218
I2563
sVtruthw
p3219
I4699
sVstatement
p3220
I4311
sVunlik
p3221
I4802
sVrefresh
p3222
I3733
sVbless
p3223
I494
sVagoit
p3224
I88
sVachiev
p3225
I35
sVnaughti
p3226
I3052
sVundertak
p3227
I4787
sVfound
p3228
I1768
sVleftov
p3229
I2621
sVtrailer
p3230
I4667
sVdenni
p3231
I1194
sVharo
p3232
I2036
sVshock
p3233
I4071
sVcost
p3234
I1007
sVabama
p3235
I7
sVskydiv
p3236
I4138
sVgearmotor
p3237
I1859
sVfish
p3238
I1709
sVculturaltrip
p3239
I1082
sVanarchi
p3240
I160
sVifip
p3241
I2260
sVdemocrat
p3242
I1190
sVheavi
p3243
I2076
sVkatrina
p3244
I2494
sVconnect
p3245
I957
sVtodd
p3246
I4615
sVvma
p3247
I4916
sVcampesino
p3248
I675
sVenergi
p3249
I1475
sVbeyond
p3250
I454
sVhartley
p3251
I2041
sVevent
p3252
I1531
sVwacki
p3253
I4928
sVstartedmeet
p3254
I4304
sVinikoa
p3255
I2309
sVsafeti
p3256
I3918
sVftw
p3257
I1808
sVitem
p3258
I2392
sVsutherland
p3259
I4428
sVrobert
p3260
I3850
sVnepal
p3261
I3076
sVpublish
p3262
I3615
sVprimari
p3263
I3559
sVrace
p3264
I3654
sVfountain
p3265
I1771
sVhill
p3266
I2108
sVwagon
p3267
I4930
sVprint
p3268
I3564
sVrove
p3269
I3889
sVftl
p3270
I1806
sVhighway
p3271
I2106
sVass
p3272
I262
sVdifficulti
p3273
I1241
sVcibola
p3274
I821
sVasp
p3275
I261
sVwisconsin
p3276
I5056
sVbelief
p3277
I434
sVast
p3278
I269
sVdunc
p3279
I1381
sVporcelain
p3280
I3506
sVfriday
p3281
I1794
sVguess
p3282
I1974
sVmaint
p3283
I2764
sVrocki
p3284
I3857
sVlifestyl
p3285
I2655
sVcornstarch
p3286
I1001
sVasa
p3287
I249
sVbase
p3288
I383
sVbeliev
p3289
I435
sVdire
p3290
I1254
sVxserv
p3291
I5183
sVask
p3292
I257
sVskitsano
p3293
I4136
sVteach
p3294
I4483
sVash
p3295
I251
sVzune
p3296
I5246
sVbask
p3297
I389
sVbash
p3298
I384
sVbasi
p3299
I386
sVblister
p3300
I499
sVwwwhottesttrendcom
p3301
I5144
sVguiliani
p3302
I1980
sVnaina
p3303
I3035
sVsugar
p3304
I4394
sVlaunch
p3305
I2592
sVdrupal
p3306
I1364
sVairport
p3307
I105
sVsitcom
p3308
I4126
sVadvanc
p3309
I62
sVstruggl
p3310
I4365
sVrevolutionari
p3311
I3819
sVcaption
p3312
I692
sVamerican
p3313
I150
sVwll
p3314
I5067
sVtead
p3315
I4485
sVcircuit
p3316
I826
sVupgrad
p3317
I4822
sVheartbeat
p3318
I2072
sVcaherconnel
p3319
I655
sVfallen
p3320
I1604
sVassign
p3321
I265
sVfeed
p3322
I1643
sVfirsti
p3323
I1706
sVmajor
p3324
I2766
sVlafontain
p3325
I2562
sVdont
p3326
I1316
sVobviou
p3327
I3191
sVvehicl
p3328
I4870
sVdino
p3329
I1252
sVexchang
p3330
I1557
sVspookywood
p3331
I4271
sVmisc
p3332
I2915
sVcupe
p3333
I1084
sVbarbarian
p3334
I371
sVceleb
p3335
I731
sVdissatisfi
p3336
I1272
sVdone
p3337
I1315
sVcampain
p3338
I674
sVflacco
p3339
I1716
sVhorribl
p3340
I2163
sVmiss
p3341
I2919
sVgiuliani
p3342
I1888
sVbedya
p3343
I421
sVsarcast
p3344
I3939
sVdiffer
p3345
I1239
sVkillin
p3346
I2523
sVkoo
p3347
I2546
sVswarm
p3348
I4433
sVsm
p3349
I4163
sVdfw
p3350
I1228
sVporn
p3351
I3508
sVmoab
p3352
I2934
sVconstruct
p3353
I967
sVpaint
p3354
I3312
sVatlantacnn
p3355
I280
sVstation
p3356
I4312
sVsmile
p3357
I4175
sVsaint
p3358
I3919
sVnatur
p3359
I3051
sVlab
p3360
I2558
sVmaster
p3361
I2815
sVplacetak
p3362
I3446
sVjen
p3363
I2433
sVcomfi
p3364
I900
sVstore
p3365
I4342
sVrudi
p3366
I3897
sVoption
p3367
I3254
sVdraper
p3368
I1341
sVpump
p3369
I3619
sVsweet
p3370
I4434
sVetsi
p3371
I1521
sVpark
p3372
I3331
sVwestin
p3373
I5008
sVrivet
p3374
I3841
sVmmmm
p3375
I2929
sVdentist
p3376
I1196
sVappropri
p3377
I215
sVconsult
p3378
I968
sVkokatana
p3379
I2544
sVmoder
p3380
I2941
sVdiggnat
p3381
I1245
sVrampant
p3382
I3677
sVtriciti
p3383
I4683
sVobama
p3384
I3185
sVking
p3385
I2528
sVkind
p3386
I2524
sVdoubli
p3387
I1326
sVfold
p3388
I1741
sVfakesarahpalin
p3389
I1600
sVgotten
p3390
I1924
sVtwitterbut
p3391
I4743
sVcarla
p3392
I702
sVyouth
p3393
I5226
sVarcata
p3394
I222
sVbridg
p3395
I579
sVstalk
p3396
I4295
sVsole
p3397
I4197
sVnuthin
p3398
I3174
sVarrang
p3399
I240
sVdane
p3400
I1117
sVtoward
p3401
I4653
sVdanc
p3402
I1116
sVcolour
p3403
I891
sVdana
p3404
I1115
sVlasgan
p3405
I2581
sVcleaner
p3406
I842
sVunpredict
p3407
I4807
sVcomput
p3408
I933
sVatmospher
p3409
I282
sVwasnt
p3410
I4956
sVblueribboncowwin
p3411
I516
sVhandout
p3412
I2022
sVreunion
p3413
I3811
sVaussi
p3414
I298
sVgale
p3415
I1835
sVsteak
p3416
I4318
sVweebit
p3417
I4989
sVtweetscan
p3418
I4731
sVlarri
p3419
I2579
sVvirb
p3420
I4903
sVcoulnt
p3421
I1010
sVkarl
p3422
I2489
sVsell
p3423
I4006
sVimagin
p3424
I2269
sVwilson
p3425
I5043
sVkornheis
p3426
I2550
sVbuilt
p3427
I619
sVtough
p3428
I4650
sVjudah
p3429
I2472
sVlil
p3430
I2661
sVloooong
p3431
I2709
sVscotland
p3432
I3972
sVwalk
p3433
I4937
sVtwitterjust
p3434
I4748
sVnihongospeak
p3435
I3110
sVcaesar
p3436
I651
sVefl
p3437
I1424
sVbuild
p3438
I618
sVsndbueno
p3439
I4184
sVmtvfirst
p3440
I3007
sVbrace
p3441
I557
sVsignup
p3442
I4106
sVsocieti
p3443
I4191
sVwaitin
p3444
I4932
sVplay
p3445
I3456
sVhotel
p3446
I2172
sVdayton
p3447
I1134
sVreckon
p3448
I3715
sVblackboard
p3449
I487
sVenglish
p3450
I1480
sVchart
p3451
I767
sVsteam
p3452
I4319
sVangieheartsnet
p3453
I170
sVsuch
p3454
I4386
sVbrooklyn
p3455
I598
sVcharl
p3456
I764
sVshpould
p3457
I4092
sValpha
p3458
I136
sVkay
p3459
I2495
sVwisdom
p3460
I5057
sVcharg
p3461
I763
sVamaz
p3462
I144
sVkc
p3463
I2497
sVtarragon
p3464
I4469
sVclear
p3465
I844
sVevacu
p3466
I1526
sVcover
p3467
I1022
sVusual
p3468
I4842
sVpart
p3469
I3337
sVpic
p3470
I3423
sVabnorm
p3471
I13
sVagothey
p3472
I90
sVrepli
p3473
I3777
sVmaruchan
p3474
I2805
sVbarrel
p3475
I381
sVlatest
p3476
I2586
sVblend
p3477
I493
sVusit
p3478
I4839
sVawesom
p3479
I327
sVfreddiefanni
p3480
I1786
sVsurg
p3481
I4418
sVcommerc
p3482
I906
sVgolf
p3483
I1912
sVhonolulu
p3484
I2150
sVgold
p3485
I1911
sVsummer
p3486
I4400
sVaaaaand
p3487
I1
sVtentacl
p3488
I4513
sVouterbanksnorth
p3489
I3283
sVrepub
p3490
I3780
sVviciou
p3491
I4888
sVpleaser
p3492
I3466
sVvantag
p3493
I4860
sVsession
p3494
I4034
sVscrabbl
p3495
I3975
sVworri
p3496
I5111
sVfinn
p3497
I1694
sVfeedblitz
p3498
I1645
sVfind
p3499
I1688
sVimpact
p3500
I2272
sVcell
p3501
I733
sVgallbladd
p3502
I1836
sVshave
p3503
I4055
sVpretti
p3504
I3555
sVbowzer
p3505
I552
sVwriter
p3506
I5129
sVsolut
p3507
I4200
sVphlebotomistflebotomistphlebotimistil
p3508
I3414
sVpublic
p3509
I3614
sVknowledg
p3510
I2542
sVkadu
p3511
I2485
sVsure
p3512
I4416
sVjoyfm
p3513
I2470
sVweve
p3514
I5010
sVhit
p3515
I2117
sVdownpour
p3516
I1335
sVbackachesdiabet
p3517
I341
sVselfglori
p3518
I4004
sVcustodian
p3519
I1092
sVwilliam
p3520
I5042
sVexpress
p3521
I1578
sVpregnant
p3522
I3540
sVtortellini
p3523
I4646
sVxwife
p3524
I5185
sVcheaper
p3525
I773
sVspi
p3526
I4262
sVnativ
p3527
I3050
sVzomg
p3528
I5244
sVmalwar
p3529
I2776
sVlongest
p3530
I2705
sVcompass
p3531
I922
sVdamnit
p3532
I1112
sVwaswho
p3533
I4959
sVroomi
p3534
I3874
sVbanner
p3535
I368
sVupdat
p3536
I4819
sVcepeda
p3537
I740
sVorgniz
p3538
I3266
sVtweedi
p3539
I4724
sVproclaim
p3540
I3577
sVsmallim
p3541
I4165
sVremot
p3542
I3765
sVcaliforniac
p3543
I664
sVcommon
p3544
I913
sVleppi
p3545
I2631
sVhype
p3546
I2240
sVwellmad
p3547
I5001
sVcri
p3548
I1052
sVmacrumor
p3549
I2748
sVoutlaw
p3550
I3285
sVwrote
p3551
I5131
sVtha
p3552
I4527
sVars
p3553
I244
sVart
p3554
I245
sVtruthout
p3555
I4698
sVdump
p3556
I1379
sVcreator
p3557
I1044
sVoverwhelm
p3558
I3297
sVvinc
p3559
I4899
sVstartup
p3560
I4306
sVsez
p3561
I4045
sVgrey
p3562
I1956
sVlion
p3563
I2673
sVhistori
p3564
I2116
sVbare
p3565
I375
sVseo
p3566
I4019
sVclose
p3567
I856
sVbark
p3568
I377
sVarm
p3569
I235
sVbarn
p3570
I379
sVshower
p3571
I4091
sVritz
p3572
I3840
sVexpert
p3573
I1574
sVmerci
p3574
I2865
sVdebas
p3575
I1151
sVwot
p3576
I5116
sVsometh
p3577
I4206
sVgrandmoth
p3578
I1939
sVparticip
p3579
I3339
sVgroceri
p3580
I1959
sVdebat
p3581
I1152
sVwom
p3582
I5073
sVichat
p3583
I2249
sVenclosur
p3584
I1470
sVheeeheeh
p3585
I2080
sVguardian
p3586
I1972
sVpleasedressm
p3587
I3465
sVguilt
p3588
I1983
sVexperi
p3589
I1572
sVnope
p3590
I3131
sVpiss
p3591
I3437
sVsolo
p3592
I4199
sVwwwsocialharborcom
p3593
I5161
sVdalla
p3594
I1109
sVbibl
p3595
I457
sVchapstick
p3596
I761
sVnumer
p3597
I3170
sVsold
p3598
I4196
sVbravoi
p3599
I567
sVmailbox
p3600
I2760
sVbarrack
p3601
I380
sVnowto
p3602
I3159
sVike
p3603
I2263
sVwoe
p3604
I5070
sVnervou
p3605
I3079
sVtater
p3606
I4474
sVpurpl
p3607
I3626
sVservo
p3608
I4033
sVboth
p3609
I544
sVendbeauti
p3610
I1472
sVcryptic
p3611
I1069
sVlast
p3612
I2582
sVpattysu
p3613
I3360
sVcharstest
p3614
I766
sVtmobil
p3615
I4611
sValon
p3616
I133
sVnanotech
p3617
I3042
sVplurk
p3618
I3475
sVitpro
p3619
I2396
sVtit
p3620
I4606
sValot
p3621
I135
sVbuzz
p3622
I642
sVpdf
p3623
I3367
sVcarniv
p3624
I706
sVwhole
p3625
I5025
sVcynic
p3626
I1100
sVclone
p3627
I855
sVfigurng
p3628
I1673
sVloaf
p3629
I2689
sVbournedal
p3630
I549
sVepisod
p3631
I1496
sVwonka
p3632
I5079
sVdrunk
p3633
I1363
sVschedul
p3634
I3964
sVloan
p3635
I2690
sVderid
p3636
I1205
sVvaca
p3637
I4850
sVmindcl
p3638
I2909
sVonitor
p3639
I3236
sVheader
p3640
I2063
sVbopsourc
p3641
I537
sVsuppli
p3642
I4410
sVchurch
p3643
I819
sVmistak
p3644
I2922
sVthroughout
p3645
I4575
sVpasswordif
p3646
I3350
sVpodpress
p3647
I3480
sVduh
p3648
I1374
sVdui
p3649
I1375
sVbecom
p3650
I417
sVjava
p3651
I2423
sVmacau
p3652
I2743
sVintelligroup
p3653
I2336
sVgreatit
p3654
I1951
sVdamp
p3655
I1114
sVduc
p3656
I1371
sVdevic
p3657
I1223
sVdue
p3658
I1373
sVcalculu
p3659
I660
sVchummi
p3660
I816
sVinstructablescom
p3661
I2330
sVpc
p3662
I3365
sVsecret
p3663
I3991
sVpa
p3664
I3302
sVdamn
p3665
I1111
sVshopifi
p3666
I4077
sVtomlinson
p3667
I4626
sVpe
p3668
I3368
sVmonthli
p3669
I2965
sVpile
p3670
I3430
sVnicol
p3671
I3104
sVdevis
p3672
I1225
sVpl
p3673
I3443
sVpm
p3674
I3476
sVfirm
p3675
I1702
sVsweetheart
p3676
I4435
sVwish
p3677
I5059
sVflight
p3678
I1725
sVtopspot
p3679
I4644
sVgay
p3680
I1851
sVbuck
p3681
I612
sVfire
p3682
I1697
sVinfect
p3683
I2301
sVimag
p3684
I2268
sVada
p3685
I45
sVgreat
p3686
I1949
sVimac
p3687
I2267
sVdiscussedbiden
p3688
I1267
sVfund
p3689
I1818
sVracer
p3690
I3655
sVpartli
p3691
I3343
sVwhitney
p3692
I5022
sVdemand
p3693
I1185
sVaddictivesooo
p3694
I49
sVeduc
p3695
I1418
sVnrw
p3696
I3164
sVinvit
p3697
I2362
sVscottish
p3698
I3973
sVsobe
p3699
I4188
sVentitl
p3700
I1491
sVpolitician
p3701
I3495
sVlook
p3702
I2707
sVsziasztok
p3703
I4446
sVstraight
p3704
I4346
sVbill
p3705
I467
sVbudget
p3706
I615
sVgovernor
p3707
I1927
sVdurat
p3708
I1384
sVramif
p3709
I3676
sVpace
p3710
I3303
sVlitig
p3711
I2681
sVduran
p3712
I1383
sVabov
p3713
I15
sVerror
p3714
I1507
sVfun
p3715
I1816
sVraven
p3716
I3684
sVeveryon
p3717
I1539
sVloop
p3718
I2711
sVnaptim
p3719
I3044
sVearli
p3720
I1397
sVparapleg
p3721
I3328
sVpound
p3722
I3522
sVmoth
p3723
I2982
sVcentr
p3724
I737
sVsomth
p3725
I4210
sVjpg
p3726
I2471
sVmoto
p3727
I2987
sVunimpress
p3728
I4794
sVitself
p3729
I2397
sVyippi
p3730
I5212
sVxtra
p3731
I5184
sVmalloy
p3732
I2774
sVrid
p3733
I3829
sVmilwauke
p3734
I2905
sVric
p3735
I3823
sVdressinggown
p3736
I1350
sVchase
p3737
I768
sVchauffeur
p3738
I770
sVdecor
p3739
I1161
sVresearch
p3740
I3786
sVshirt
p3741
I4068
sVgrant
p3742
I1941
sVbelong
p3743
I439
sVwwwkqedorgradio
p3744
I5146
sVbutcher
p3745
I637
sVfunni
p3746
I1823
sVawhilea
p3747
I329
sVunpottytrain
p3748
I4806
sVitali
p3749
I2388
sVspade
p3750
I4242
sVgrand
p3751
I1937
sVbaribiza
p3752
I376
sVtonn
p3753
I4636
sVray
p3754
I3687
sVeww
p3755
I1544
sVconflict
p3756
I950
sVfranklin
p3757
I1780
sVthirti
p3758
I4560
sVgoodwil
p3759
I1917
sVdime
p3760
I1250
sVoptim
p3761
I3253
sVbanter
p3762
I369
sVdefeat
p3763
I1166
sVyesterday
p3764
I5209
sValert
p3765
I120
sVmoment
p3766
I2953
sVwalmart
p3767
I4939
sVtemporari
p3768
I4507
sVuser
p3769
I4837
sVdehabilit
p3770
I1173
sVtweet
p3771
I4728
sVunveil
p3772
I4816
sVrachel
p3773
I3656
sVimplement
p3774
I2273
sVeuro
p3775
I1522
sVhmmmmmm
p3776
I2122
sVlower
p3777
I2728
sVerpcrm
p3778
I1505
sVjobot
p3779
I2450
sVhttpwwwdatingrussianbridescom
p3780
I2201
sVcellphon
p3781
I734
sVkelli
p3782
I2506
sVentri
p3783
I1492
sVpoland
p3784
I3487
sVdoodl
p3785
I1319
sVhttpwwwustreamtv
p3786
I2211
sVhaul
p3787
I2047
sVjoint
p3788
I2458
sVkcal
p3789
I2498
sVmorrow
p3790
I2979
sVmiam
p3791
I2878
sVcheer
p3792
I780
sVchees
p3793
I782
sVexpens
p3794
I1571
sVgrip
p3795
I1958
sVtraffic
p3796
I4665
sVskill
p3797
I4133
sVtast
p3798
I4473
sVanybodi
p3799
I191
sVdarn
p3800
I1123
sVtim
p3801
I4596
sVchore
p3802
I808
sVopenli
p3803
I3246
sVtherefor
p3804
I4545
sVsound
p3805
I4233
sVnavi
p3806
I3053
sVpomegran
p3807
I3497
sVshini
p3808
I4065
sVplacat
p3809
I3444
sVshape
p3810
I4051
sVyeahhh
p3811
I5204
sVmysql
p3812
I3024
sVlove
p3813
I2723
sVkucinich
p3814
I2554
sVcontinent
p3815
I975
sVdepriv
p3816
I1203
sVtigress
p3817
I4592
sVcut
p3818
I1094
sVma
p3819
I2741
sVcup
p3820
I1083
sVshake
p3821
I4047
sVcuz
p3822
I1097
sVbarack
p3823
I370
sVhavin
p3824
I2050
sVeverbut
p3825
I1533
sVkiter
p3826
I2534
sVcub
p3827
I1075
sVtweak
p3828
I4722
sVstatsfavorit
p3829
I4314
sVinput
p3830
I2315
sVmod
p3831
I2938
sVeaster
p3832
I1405
sVbrainstorm
p3833
I563
sVchairman
p3834
I748
sVwebspac
p3835
I4985
sVlivest
p3836
I2685
sVcomplaint
p3837
I929
sVthecal
p3838
I4536
sVvendor
p3839
I4873
sVweather
p3840
I4978
sVformat
p3841
I1761
sVbig
p3842
I461
sVbid
p3843
I459
sVhomeschool
p3844
I2143
sVfolk
p3845
I1742
sVinjur
p3846
I2311
sVgbay
p3847
I1854
sVgame
p3848
I1838
sVbiz
p3849
I483
sVthoroughli
p3850
I4565
sVrenospark
p3851
I3770
sVfalcon
p3852
I1601
sVbit
p3853
I480
sVawaken
p3854
I320
sVshotim
p3855
I4083
sVawsum
p3856
I331
sVknock
p3857
I2540
sVallign
p3858
I130
sVmasonmetrocom
p3859
I2812
sVnumnum
p3860
I3171
sVpuck
p3861
I3616
sVsignal
p3862
I4104
sVpunni
p3863
I3620
sVresolv
p3864
I3791
sVheart
p3865
I2071
sVcollect
p3866
I883
sVarthur
p3867
I246
sVwit
p3868
I5060
sVquarterback
p3869
I3642
sVrecalcitr
p3870
I3710
sVsofa
p3871
I4193
sVeee
p3872
I1420
sVcruis
p3873
I1062
sVinterestingli
p3874
I2343
sVtaxexempt
p3875
I4478
sVattica
p3876
I290
sVliein
p3877
I2650
sVsceret
p3878
I3963
sVcreation
p3879
I1042
sVback
p3880
I340
sVextremist
p3881
I1582
sVshoptoearnshoptoearth
p3882
I4079
sVmmmmm
p3883
I2930
sVsight
p3884
I4102
sVgreener
p3885
I1954
sVinsur
p3886
I2333
sVduart
p3887
I1369
sVserver
p3888
I4031
sVpale
p3889
I3315
sVyknow
p3890
I5213
sVwwwmechantboeufcom
p3891
I5151
sVaffili
p3892
I71
sVscale
p3893
I3957
sVchocol
p3894
I803
sVtweedledeede
p3895
I4725
sVgruel
p3896
I1967
sVpet
p3897
I3402
sVamatur
p3898
I143
sVexec
p3899
I1561
sVrepubl
p3900
I3781
sVper
p3901
I3390
sVdebra
p3902
I1153
sVnewark
p3903
I3085
sVreligion
p3904
I3757
sVpen
p3905
I3381
sVlarg
p3906
I2576
sVjewelri
p3907
I2441
sVncixcom
p3908
I3058
sVwate
p3909
I4963
sVlark
p3910
I2578
sVtransplant
p3911
I4670
sVpea
p3912
I3369
sVstonemason
p3913
I4339
sVmachin
p3914
I2747
sVruh
p3915
I3898
sVobject
p3916
I3187
sVpatient
p3917
I3358
sVbb
p3918
I398
sVufo
p3919
I4763
sVwayward
p3920
I4972
sVword
p3921
I5092
sVmartin
p3922
I2803
sVuse
p3923
I4835
sVbt
p3924
I608
sVbu
p3925
I610
sVsim
p3926
I4111
sVachi
p3927
I34
sVinvestig
p3928
I2360
sVamresearch
p3929
I154
sVmeantim
p3930
I2842
sVcarol
p3931
I707
sVraider
p3932
I3664
sVexpatcoach
p3933
I1566
sVmida
p3934
I2886
sVfaith
p3935
I1598
sVauxilari
p3936
I310
sVkeynot
p3937
I2514
sVyawn
p3938
I5196
sVretardth
p3939
I3805
sVagainlol
p3940
I80
sVmateri
p3941
I2818
sVcommun
p3942
I914
sVhmmmthink
p3943
I2123
sVmatern
p3944
I2819
sVpage
p3945
I3309
sVdrama
p3946
I1339
sVcalgari
p3947
I662
sVrevolut
p3948
I3818
sVregular
p3949
I3741
sVrealli
p3950
I3701
sVidk
p3951
I2258
sVstuart
p3952
I4366
sVblock
p3953
I502
sVaddict
p3954
I48
sVslideolog
p3955
I4152
sVchk
p3956
I802
sVreal
p3957
I3696
sVcolorado
p3958
I890
sVirrit
p3959
I2378
sVtiff
p3960
I4590
sVsens
p3961
I4015
sVwithin
p3962
I5062
sVicmistuff
p3963
I2250
sVtwittercom
p3964
I4744
sVnagoya
p3965
I3032
sVmartinez
p3966
I2804
sVcarlton
p3967
I703
sVdeduct
p3968
I1162
sVgrammi
p3969
I1936
sVholster
p3970
I2137
sVlender
p3971
I2629
sVcontributor
p3972
I979
sVlesson
p3973
I2633
sVannounc
p3974
I176
sVkarrinesteffan
p3975
I2491
sVwife
p3976
I5037
sVoccupi
p3977
I3197
sVontario
p3978
I3240
sVfreemanexcit
p3979
I1790
sVkathleen
p3980
I2492
sVkarrin
p3981
I2490
sVdalai
p3982
I1107
sVfast
p3983
I1625
sVcustom
p3984
I1093
sVindoor
p3985
I2296
sVcamera
p3986
I669
sVinclud
p3987
I2283
sVsuit
p3988
I4398
sVforward
p3989
I1765
sVetch
p3990
I1517
sVlexi
p3991
I2639
sVsex
p3992
I4043
sVboya
p3993
I555
sVcrab
p3994
I1027
sVfishi
p3995
I1710
sVfilet
p3996
I1676
sVjewish
p3997
I2442
sVretina
p3998
I3806
sVpastor
p3999
I3353
sVglamour
p4000
I1892
sVcloth
p4001
I860
sVarchaic
p4002
I223
sVscreensav
p4003
I3979
sVcrank
p4004
I1030
sVtranslat
p4005
I4669
sVdelta
p4006
I1183
sVduli
p4007
I1376
sVcoldest
p4008
I881
sVcrane
p4009
I1029
sVtpad
p4010
I4658
sVangri
p4011
I171
sVjacki
p4012
I2408
sVinfo
p4013
I2305
sVyammercom
p4014
I5193
sVswer
p4015
I4438
sVblogwwwwhatevernextblogspotcom
p4016
I509
sVutd
p4017
I4844
sVreload
p4018
I3759
sVut
p4019
I4843
sVthinkpad
p4020
I4556
sVcim
p4021
I822
sVerica
p4022
I1502
sVplanet
p4023
I3452
sVui
p4024
I4768
sVuh
p4025
I4765
sVuk
p4026
I4769
sVsum
p4027
I4399
sVhighlight
p4028
I2104
sVsimilar
p4029
I4112
sVfico
p4030
I1663
sVwichita
p4031
I5032
sVcurv
p4032
I1090
sVcamp
p4033
I672
sVfreak
p4034
I1783
sVmetal
p4035
I2872
sVchao
p4036
I760
sVlectur
p4037
I2618
sVsuz
p4038
I4430
sVcure
p4039
I1087
sVchat
p4040
I769
sVemailsand
p4041
I1457
sVheadachealway
p4042
I2062
sVcafe
p4043
I652
sVgraham
p4044
I1935
sVnovelist
p4045
I3153
sVtwitterif
p4046
I4747
sVblasphem
p4047
I489
sVrainbow
p4048
I3667
sVkandysoft
p4049
I2486
sVgrr
p4050
I1964
sVrorschach
p4051
I3880
sVtone
p4052
I4630
sVpat
p4053
I3354
sVwater
p4054
I4964
sVafford
p4055
I72
sVnap
p4056
I3043
sVgre
p4057
I1948
sVhttpmhuymhuyblogspotcom
p4058
I2193
sVellen
p4059
I1452
sVpeopl
p4060
I3386
sVtech
p4061
I4490
sVjco
p4062
I2427
sVparadisio
p4063
I3326
sVmock
p4064
I2936
sVnice
p4065
I3102
sVcarpoolin
p4066
I711
sVdraw
p4067
I1342
sVexatli
p4068
I1552
sVgekko
p4069
I1863
sVclean
p4070
I841
sVutterli
p4071
I4847
sVlend
p4072
I2628
sVwonderig
p4073
I5078
sVscrum
p4074
I3981
sVathen
p4075
I275
sVlens
p4076
I2630
sVpitchesabout
p4077
I3440
sVmeaning
p4078
I2840
sVevan
p4079
I1528
sVlunch
p4080
I2736
sVweigh
p4081
I4994
sVwooitun
p4082
I5085
sVenhanc
p4083
I1481
sVpbj
p4084
I3364
sVdesert
p4085
I1209
sVwinger
p4086
I5051
sVdeserv
p4087
I1210
sVago
p4088
I87
sVsudoku
p4089
I4391
sVremix
p4090
I3764
sVland
p4091
I2570
sVfighter
p4092
I1670
sVwendi
p4093
I5002
sVhooba
p4094
I2153
sVdvd
p4095
I1389
sVage
p4096
I82
sVton
p4097
I4629
sVbetteral
p4098
I451
sVhagerstown
p4099
I2000
sVscream
p4100
I3977
sVdepth
p4101
I1204
sVsummit
p4102
I4401
sVcame
p4103
I668
sVbribe
p4104
I577
sVrestor
p4105
I3799
sVgrownup
p4106
I1963
sVvistagi
p4107
I4913
sVyank
p4108
I5194
sVhello
p4109
I2086
sVcancertumor
p4110
I681
sVhillari
p4111
I2109
sVessay
p4112
I1512
sVseahawk
p4113
I3986
sVcode
p4114
I874
sVjason
p4115
I2422
sVconsrvti
p4116
I964
sVgp
p4117
I1929
sVscratch
p4118
I3976
sVgreen
p4119
I1953
sVtweeter
p4120
I4729
sVhaisth
p4121
I2008
sVgg
p4122
I1877
sVjuliani
p4123
I2476
sVgc
p4124
I1855
sVgang
p4125
I1841
sVga
p4126
I1831
sVfreakin
p4127
I1784
sVgossip
p4128
I1923
sVpsycho
p4129
I3611
sVchillin
p4130
I796
sVhampshir
p4131
I2018
sVlifestreamfm
p4132
I2654
sVcompact
p4133
I918
sVculinari
p4134
I1079
sVgayyay
p4135
I1852
sVpeanut
p4136
I3373
sVhelpl
p4137
I2089
sVitll
p4138
I2394
sVfriendli
p4139
I1796
sVsend
p4140
I4013
sVcuppa
p4141
I1085
sVoclock
p4142
I3199
sVallegan
p4143
I127
sVfunnycut
p4144
I1825
sVbecam
p4145
I414
sVdickinson
p4146
I1233
sVreuter
p4147
I3812
sVleav
p4148
I2617
sVmaryland
p4149
I2808
sVinperson
p4150
I2314
sVgb
p4151
I1853
sVsent
p4152
I4017
sVreveal
p4153
I3814
sVmastro
p4154
I2816
sVqueen
p4155
I3643
sVparttim
p4156
I3347
sVgarden
p4157
I1843
sVtulsa
p4158
I4711
sVwithout
p4159
I5063
sVcoproduc
p4160
I998
sVeggsactli
p4161
I1426
sVwave
p4162
I4968
sVwebconfer
p4163
I4981
sVelectron
p4164
I1439
sVfacebook
p4165
I1587
sVrainwash
p4166
I3670
sVvacat
p4167
I4851
sVslogan
p4168
I4159
sVkitti
p4169
I2535
sVwipe
p4170
I5053
sVmispent
p4171
I2917
sVrecip
p4172
I3714
sVsmarter
p4173
I4170
sVforani
p4174
I1750
sVfacebooky
p4175
I1590
sVcarmak
p4176
I704
sVmeant
p4177
I2841
sVbutton
p4178
I640
sVgettin
p4179
I1876
sVmichael
p4180
I2881
sVryan
p4181
I3908
sVkansa
p4182
I2487
sVanxious
p4183
I190
sVchantrel
p4184
I759
sVomnitur
p4185
I3231
sVsecond
p4186
I3990
sVzero
p4187
I5242
sVmumbai
p4188
I3014
sVhavent
p4189
I2049
sVregard
p4190
I3736
sVictdemocraci
p4191
I2251
sVpleas
p4192
I3464
sVsomeday
p4193
I4204
sVpretend
p4194
I3554
sVflu
p4195
I1734
sVwors
p4196
I5112
sVmaintain
p4197
I2765
sVjump
p4198
I2477
sVcrook
p4199
I1055
sVcadwal
p4200
I650
sVhose
p4201
I2166
sVgiell
p4202
I1879
sVbooth
p4203
I536
sVzz
p4204
I5247
sVplead
p4205
I3463
sVdownload
p4206
I1334
sVevertsk
p4207
I1536
sVsubmit
p4208
I4380
sVodd
p4209
I3204
sVclick
p4210
I847
sVappend
p4211
I204
sVtwitterp
p4212
I4750
sVcompat
p4213
I924
sVfacebookwhi
p4214
I1589
sVrenov
p4215
I3771
sVpower
p4216
I3525
sVcompar
p4217
I920
sVchicago
p4218
I788
sVanton
p4219
I187
sVginni
p4220
I1884
sVaccess
p4221
I22
sVindian
p4222
I2291
sVplaya
p4223
I3457
sVuhmmm
p4224
I4767
sVbird
p4225
I474
sVsux
p4226
I4429
sVnacho
p4227
I3029
sVrichsanchezcnn
p4228
I3825
sVvibrat
p4229
I4886
sVlexmark
p4230
I2640
sVled
p4231
I2619
sVchose
p4232
I809
sVabsolut
p4233
I16
sVwhatthebuckshow
p4234
I5014
sVpander
p4235
I3320
sVgiant
p4236
I1878
sVstraw
p4237
I4350
sVbodi
p4238
I523
sVkonkursro
p4239
I2545
sVbachelor
p4240
I339
sVnortheast
p4241
I3135
sVsink
p4242
I4121
sVgloat
p4243
I1897
sVmeet
p4244
I2852
sVtv
p4245
I4720
sVsing
p4246
I4118
sVadministaff
p4247
I54
sVwin
p4248
I5044
sVdrobo
p4249
I1358
sVresidenti
p4250
I3790
sVconvert
p4251
I986
sVproduc
p4252
I3579
sVtalent
p4253
I4459
sVconvers
p4254
I985
sVmetro
p4255
I2875
sVtoast
p4256
I4612
sVmclaren
p4257
I2835
sVtechnolog
p4258
I4494
sValaska
p4259
I114
sVlater
p4260
I2585
sVcloseout
p4261
I857
sVpracticesjust
p4262
I3530
sVelectiontri
p4263
I1436
sVsurvey
p4264
I4422
sVcta
p4265
I1074
sVyaesu
p4266
I5190
sVarmpit
p4267
I238
sVkathmandu
p4268
I2493
sVopinion
p4269
I3249
sVchang
p4270
I757
sVhonor
p4271
I2151
sVchanc
p4272
I755
sVhardi
p4273
I2033
sVperitoneum
p4274
I3397
sVwid
p4275
I5034
sVfirefox
p4276
I1700
sVsheild
p4277
I4060
sVdanger
p4278
I1118
sVnewbi
p4279
I3086
sVappli
p4280
I211
sVapp
p4281
I202
sVfoundat
p4282
I1769
sVfiidl
p4283
I1674
sVwii
p4284
I5039
sVrestaur
p4285
I3798
sVexpect
p4286
I1567
sVpresidenti
p4287
I3551
sVwk
p4288
I5065
sVawsom
p4289
I330
sVsiru
p4290
I4123
sVinfest
p4291
I2302
sVapa
p4292
I198
sVredo
p4293
I3728
sVegg
p4294
I1425
sVcloud
p4295
I861
sVreflector
p4296
I3732
sVhttpchrisblankscom
p4297
I2188
sVfed
p4298
I1639
sVfee
p4299
I1642
sVcrap
p4300
I1032
sVusa
p4301
I4834
sVbitterli
p4302
I482
sVchi
p4303
I787
sVdoubl
p4304
I1325
sVfek
p4305
I1648
sVmonetari
p4306
I2957
sVwebsit
p4307
I4984
sVfew
p4308
I1655
sVdoubt
p4309
I1327
sVtimespleas
p4310
I4600
sVaddressnotfound
p4311
I52
sVsave
p4312
I3951
sVbutler
p4313
I638
sVtaxpay
p4314
I4479
sVlewi
p4315
I2638
sVcommut
p4316
I916
sVmidday
p4317
I2887
sVfey
p4318
I1656
sVsort
p4319
I4230
sVtheater
p4320
I4534
sVstarledg
p4321
I4302
sVsingap
p4322
I4119
sVbabi
p4323
I337
sVrode
p4324
I3859
sVchamillionair
p4325
I753
sVimpress
p4326
I2276
sVfuck
p4327
I1809
sVrecal
p4328
I3709
sVsore
p4329
I4228
sVtrain
p4330
I4668
sVtodaythi
p4331
I4614
sVcrusad
p4332
I1066
sVtropic
p4333
I4692
sVnfld
p4334
I3098
sVok
p4335
I3217
sVolymp
p4336
I3224
sVwomen
p4337
I5075
sVannoy
p4338
I177
sVtopic
p4339
I4643
sVaccount
p4340
I28
sVluekema
p4341
I2735
sVretriev
p4342
I3809
sVkick
p4343
I2516
sVpug
p4344
I3617
sVmisfortun
p4345
I2916
sVpout
p4346
I3523
sValia
p4347
I124
sVride
p4348
I3830
sVoh
p4349
I3212
sVprocrastin
p4350
I3578
sVdonut
p4351
I1317
sVthinkng
p4352
I4555
sVtag
p4353
I4454
sVwoooooo
p4354
I5088
sVdrill
p4355
I1354
sVgrate
p4356
I1946
sVkenni
p4357
I2508
sVdidnt
p4358
I1234
sVfetch
p4359
I1654
sValiv
p4360
I125
sVcontrol
p4361
I980
sVsmalltown
p4362
I4167
sVtap
p4363
I4466
sVbent
p4364
I442
sVcontempl
p4365
I972
sVprochoic
p4366
I3576
sVprocess
p4367
I3575
sVlock
p4368
I2693
sVmillionair
p4369
I2903
sVhalloween
p4370
I2013
sVhigh
p4371
I2101
sVprofessor
p4372
I3582
sVslit
p4373
I4157
sVgoona
p4374
I1919
sVcondescend
p4375
I943
sVparaphras
p4376
I3327
sVelijahwat
p4377
I1444
sVonlin
p4378
I3238
sVeverywher
p4379
I1541
sVlama
p4380
I2567
sVlame
p4381
I2568
sVcomedi
p4382
I899
sVmissplac
p4383
I2921
sVtom
p4384
I4624
sVgeorg
p4385
I1872
sVdelay
p4386
I1175
sVbrian
p4387
I576
sVneed
p4388
I3066
sVverizon
p4389
I4879
sVdemocraci
p4390
I1189
sVaft
p4391
I76
sVinstead
p4392
I2328
sVpanic
p4393
I3321
sVnasti
p4394
I3047
sVchri
p4395
I811
sVoutdownload
p4396
I3282
sVpink
p4397
I3435
sVstray
p4398
I4352
sVfinanc
p4399
I1686
sVprolif
p4400
I3591
sVattend
p4401
I288
sVfarm
p4402
I1620
sVstop
p4403
I4340
sVawait
p4404
I318
sVthunderstorm
p4405
I4581
sVfark
p4406
I1619
sVfart
p4407
I1621
sVmojovil
p4408
I2948
sVinst
p4409
I2324
sVdistinctivenessnotic
p4410
I1276
sVhahahaha
p4411
I2003
sVhostgat
p4412
I2170
sVda
p4413
I1101
sVdailysourcecod
p4414
I1105
sVunderwat
p4415
I4788
sVnpr
p4416
I3163
sVtomato
p4417
I4625
sVpocket
p4418
I3478
sVnanci
p4419
I3039
sVkorin
p4420
I2549
sVlight
p4421
I2658
sVisso
p4422
I2386
sVcounter
p4423
I1014
sVcorrespond
p4424
I1004
sVtownhous
p4425
I4655
sVissu
p4426
I2387
sVscoop
p4427
I3971
sVspain
p4428
I4243
sVallow
p4429
I131
sVkenia
p4430
I2507
sVcattl
p4431
I726
sVlined
p4432
I2667
sVjackadoodl
p4433
I2406
sVnochez
p4434
I3118
sVamber
p4435
I147
sVelig
p4436
I1443
sVthiswould
p4437
I4562
sVmovi
p4438
I2994
sVinsight
p4439
I2320
sVyummyhealthybuild
p4440
I5236
sVbodyslam
p4441
I525
sVkingfish
p4442
I2529
sVmojito
p4443
I2946
sVplaybyplay
p4444
I3458
sVvball
p4445
I4864
sVcitaaaaay
p4446
I828
sVcommi
p4447
I908
sVnewsweek
p4448
I3095
sVestat
p4449
I1513
sVglen
p4450
I1895
sVdrtm
p4451
I1361
sVlb
p4452
I2604
sVarchdioces
p4453
I224
sVcerwinsk
p4454
I744
sVla
p4455
I2557
sVlo
p4456
I2687
sVlausann
p4457
I2596
sVlabor
p4458
I2559
sVkindergarten
p4459
I2527
sVdecal
p4460
I1156
sVtyler
p4461
I4758
sVinfrastructur
p4462
I2308
sVparkwood
p4463
I3332
sVpurg
p4464
I3625
sVwhirl
p4465
I5019
sVbye
p4466
I644
sVphenomenon
p4467
I3409
sVtechcrunch
p4468
I4491
sVlaundrythi
p4469
I2594
sVdad
p4470
I1102
sVflex
p4471
I1722
sVcrash
p4472
I1034
sVpure
p4473
I3623
sVhandl
p4474
I2021
sVauto
p4475
I304
sVnada
p4476
I3031
sVnokia
p4477
I3122
sVcamino
p4478
I671
sVhttpwwwegroupwareorg
p4479
I2204
sVmention
p4480
I2863
sVwarrenmi
p4481
I4949
sVfacilit
p4482
I1591
sVdodgebal
p4483
I1300
sVprelim
p4484
I3541
sVfront
p4485
I1801
sVexaust
p4486
I1553
sVcakephp
p4487
I657
sVcage
p4488
I654
sVpreschool
p4489
I3545
sVannoint
p4490
I175
sVstroke
p4491
I4360
sVrelax
p4492
I3752
sVyouwontknow
p4493
I5229
sVsomewher
p4494
I4209
sVtow
p4495
I4652
sVgday
p4496
I1857
sVanyth
p4497
I194
sVedit
p4498
I1416
sVunlimit
p4499
I4803
sVnfl
p4500
I3097
sVmarketingprof
p4501
I2796
sVunnerv
p4502
I4804
sVslide
p4503
I4151
sVpaddleboard
p4504
I3308
sVmode
p4505
I2939
sVtruth
p4506
I4697
sVundergradu
p4507
I4785
sVstock
p4508
I4336
sVesteem
p4509
I1514
sVlie
p4510
I2649
sVteamsom
p4511
I4488
sVprogun
p4512
I3589
sVbueno
p4513
I617
sVacademypleas
p4514
I20
sVintellig
p4515
I2335
sVautopag
p4516
I307
sVtamara
p4517
I4463
sVpredic
p4518
I3537
sVbluetooth
p4519
I518
sVsymphon
p4520
I4443
sVtonightbless
p4521
I4633
sVthirteen
p4522
I4559
sVwade
p4523
I4929
sVtien
p4524
I4589
sVfedand
p4525
I1640
sVbay
p4526
I397
sVmarley
p4527
I2798
sVspringbook
p4528
I4277
sVshannon
p4529
I4050
sVtwitti
p4530
I4753
sVvariabl
p4531
I4861
sVwwwthesurfacestorecom
p4532
I5167
sVrey
p4533
I3820
sVmatrix
p4534
I2821
sVincompet
p4535
I2285
sVelectronica
p4536
I1440
sVbyronnet
p4537
I645
sVconfess
p4538
I949
sVcrasher
p4539
I1035
sVrev
p4540
I3813
sVhendri
p4541
I2091
sVxd
p4542
I5177
sVgodseri
p4543
I1907
sVactivist
p4544
I41
sVbarley
p4545
I378
sVrel
p4546
I3749
sVsoul
p4547
I4231
sVhardwar
p4548
I2034
sVwick
p4549
I5033
sVmerg
p4550
I2867
sVdefens
p4551
I1168
sVhattera
p4552
I2046
sVitslef
p4553
I2398
sVipon
p4554
I2370
sVfranc
p4555
I1778
sVshut
p4556
I4096
sVtakeov
p4557
I4458
sVjessica
p4558
I2438
sVinsid
p4559
I2319
sVwach
p4560
I4927
sVregulatori
p4561
I3743
sVsouthern
p4562
I4238
sVipod
p4563
I2369
sVwwwtheskinyourinmyarbonnecom
p4564
I5166
sVbleet
p4565
I492
sVtoll
p4566
I4623
sVtempl
p4567
I4505
sVwizard
p4568
I5064
sVjill
p4569
I2443
sVhazard
p4570
I2055
sVshreveport
p4571
I4093
sVadvisor
p4572
I67
sVreleas
p4573
I3753
sVautogril
p4574
I305
sVrelat
p4575
I3750
sVmolli
p4576
I2951
sVlog
p4577
I2694
sVchilli
p4578
I795
sVnowher
p4579
I3157
sVyard
p4580
I5195
sVnoshvil
p4581
I3138
sVklag
p4582
I2536
sVvia
p4583
I4885
sVjerkfac
p4584
I2435
sVflorida
p4585
I1731
sVmembership
p4586
I2857
sVydrive
p4587
I5200
sVdavid
p4588
I1133
sVscari
p4589
I3961
sVterri
p4590
I4515
sVbirthday
p4591
I477
sVorganis
p4592
I3263
sVoutsid
p4593
I3288
sVpresid
p4594
I3550
sVurl
p4595
I4833
sVmae
p4596
I2753
sVwouldv
p4597
I5118
sVaustin
p4598
I299
sVsouth
p4599
I4237
sVmad
p4600
I2749
sVendors
p4601
I1474
sVironman
p4602
I2377
sVrubarb
p4603
I3896
sVattent
p4604
I289
sVtwam
p4605
I4721
sVqualiti
p4606
I3639
sVscene
p4607
I3962
sVrelish
p4608
I3758
sVphiladelphia
p4609
I3412
sVsenc
p4610
I4012
sVwoohoo
p4611
I5084
sVnumber
p4612
I3169
sVpuppet
p4613
I3621
sVreggi
p4614
I3737
sVpranc
p4615
I3531
sVowner
p4616
I3301
sVmanli
p4617
I2783
sViphoto
p4618
I2368
sVhehe
p4619
I2082
sVsuffic
p4620
I4393
sVprioriti
p4621
I3567
sVhawk
p4622
I2053
sVmonkey
p4623
I2961
sVwathch
p4624
I4966
sVstart
p4625
I4303
sVdata
p4626
I1126
sVlicens
p4627
I2648
sVsep
p4628
I4021
sVaccent
p4629
I21
sVsystem
p4630
I4445
sVmalign
p4631
I2772
sVracist
p4632
I3658
sVattack
p4633
I285
sVexpenditur
p4634
I1570
sVbirthdat
p4635
I476
sVtime
p4636
I4597
sVdogparticip
p4637
I1304
sVpancak
p4638
I3319
sVman
p4639
I2777
sVfinal
p4640
I1682
sVxoxo
p4641
I5182
sVtill
p4642
I4595
sVclassyawn
p4643
I839
sVgear
p4644
I1858
sVeavesdrop
p4645
I1408
sVribeiro
p4646
I3822
sVnext
p4647
I3096
sVgummi
p4648
I1987
sVuneth
p4649
I4792
sVacademi
p4650
I19
sVexactli
p4651
I1549
sVherself
p4652
I2095
sVantichoic
p4653
I184
sVfinallyalmostdon
p4654
I1685
sVneck
p4655
I3065
sVuhm
p4656
I4766
sVben
p4657
I440
sVjohnson
p4658
I2455
sVbel
p4659
I433
sVsteek
p4660
I4321
sVwet
p4661
I5009
sVbother
p4662
I545
sVbea
p4663
I404
sVbeg
p4664
I426
sVbed
p4665
I418
sVbee
p4666
I422
sVlolrd
p4667
I2700
sVlover
p4668
I2726
sVxeed
p4669
I5178
sVdumb
p4670
I1377
sVtextguru
p4671
I4523
sVrate
p4672
I3683
sVbet
p4673
I447
sVfunction
p4674
I1817
sVdalian
p4675
I1108
sVhavw
p4676
I2051
sVclip
p4677
I852
sVterribl
p4678
I4516
sVjourney
p4679
I2468
sVpartnership
p4680
I3345
sVclearli
p4681
I845
sVrobot
p4682
I3852
sVfiredog
p4683
I1699
sVtonight
p4684
I4632
sVfail
p4685
I1594
sVmaori
p4686
I2787
sVportrait
p4687
I3512
sVfaux
p4688
I1630
sVthesi
p4689
I4547
sVnjcom
p4690
I3113
sVbliz
p4691
I501
sVgentli
p4692
I1869
sVwakeup
p4693
I4935
sVscrew
p4694
I3980
sVbastard
p4695
I391
sVafraid
p4696
I74
sVprobabl
p4697
I3571
sVsoak
p4698
I4187
sVmin
p4699
I2907
sVswitch
p4700
I4441
sVkrista
p4701
I2553
sVmix
p4702
I2926
sVmillyrootnew
p4703
I2904
sVconferenceget
p4704
I948
sVread
p4705
I3691
sVtactic
p4706
I4453
sVwrit
p4707
I5127
sVkorean
p4708
I2548
sVlatino
p4709
I2587
sVdivers
p4710
I1282
sVsingl
p4711
I4120
sVjaim
p4712
I2410
sVwwwremidiaryblogspotcom
p4713
I5159
sVtextur
p4714
I4524
sVjunior
p4715
I2479
sVunless
p4716
I4801
sVagenda
p4717
I83
sVcombat
p4718
I895
sVawar
p4719
I321
sVhazel
p4720
I2056
sVsalli
p4721
I3924
sVgalleri
p4722
I1837
sVdiscov
p4723
I1265
sVtracksband
p4724
I4661
sVoptu
p4725
I3255
sVllilongw
p4726
I2686
sVmontana
p4727
I2963
sVeight
p4728
I1429
sVehem
p4729
I1428
sVhandbag
p4730
I2020
sVthunder
p4731
I4580
sVwwwforlesspollutingcarscom
p4732
I5142
sVclass
p4733
I835
sVuppiti
p4734
I4826
sVhwugh
p4735
I2236
sVinstil
p4736
I2329
sVsdk
p4737
I3985
sVurg
p4738
I4832
sVslideshar
p4739
I4153
sVschoolwork
p4740
I3966
sValaskan
p4741
I115
sVukbas
p4742
I4770
sVrequest
p4743
I3783
sVoutfit
p4744
I3284
sVface
p4745
I1586
sVpipe
p4746
I3436
sVwkend
p4747
I5066
sVrealiz
p4748
I3700
sVsoprano
p4749
I4226
sVmalon
p4750
I2775
sVabsurd
p4751
I17
sVdetermin
p4752
I1220
sVfiasco
p4753
I1661
sVbeetl
p4754
I424
sVwayrepub
p4755
I4971
sVindi
p4756
I2289
sVwow
p4757
I5120
sVfact
p4758
I1592
sVson
p4759
I4211
sVnh
p4760
I3099
sVcartonsetc
p4761
I714
sVhilari
p4762
I2107
sVhouston
p4763
I2177
sVdba
p4764
I1140
sVtapul
p4765
I4468
sVhm
p4766
I2119
sVanyway
p4767
I195
sVhamlet
p4768
I2015
sVwatch
p4769
I4961
sVbring
p4770
I584
sVbiker
p4771
I466
sVraleigh
p4772
I3671
sVjohnni
p4773
I2454
sVffmn
p4774
I1658
sVchicken
p4775
I789
sVnowish
p4776
I3158
sVleg
p4777
I2622
sVstaff
p4778
I4290
sVfootbal
p4779
I1749
sVha
p4780
I1995
sVbicycl
p4781
I458
sVnois
p4782
I3121
sVsmarch
p4783
I4169
sVmud
p4784
I3010
sVpractic
p4785
I3529
sVcolbert
p4786
I879
sVmothbal
p4787
I2983
sVhyster
p4788
I2241
sVmanufactur
p4789
I2786
sVproobama
p4790
I3598
sVjam
p4791
I2412
sVsatan
p4792
I3943
sVcombo
p4793
I896
sVcommunist
p4794
I915
sVlocal
p4795
I2691
sVhighris
p4796
I2105
sVhope
p4797
I2160
sVinbound
p4798
I2278
sVembargo
p4799
I1459
sVjoing
p4800
I2457
sVmove
p4801
I2992
sVworkin
p4802
I5098
sVcontribut
p4803
I978
sVcuba
p4804
I1076
sVbeat
p4805
I410
sVfamiliar
p4806
I1608
sVmichigan
p4807
I2884
sVrush
p4808
I3903
sVbear
p4809
I409
sVact
p4810
I38
sVregularli
p4811
I3742
sVbatali
p4812
I392
sVbean
p4813
I408
sVohsopreci
p4814
I3215
sVmeter
p4815
I2873
sVfallout
p4816
I1605
sVwerent
p4817
I5005
sVbead
p4818
I407
sVphotographi
p4819
I3418
sVbondo
p4820
I531
sVcranki
p4821
I1031
sVlucki
p4822
I2734
sVhdmidvi
p4823
I2058
sVendless
p4824
I1473
sVgray
p4825
I1947
sVaer
p4826
I69
sVtemp
p4827
I4504
sVorgan
p4828
I3262
sVgraduat
p4829
I1934
sVrtfm
p4830
I3895
sVpossibl
p4831
I3516
sVhassleback
p4832
I2043
sVire
p4833
I2374
sVwwwcornettasgolfcom
p4834
I5138
sVstuff
p4835
I4372
sVgush
p4836
I1990
sVbusywher
p4837
I636
sVsor
p4838
I4227
sVohio
p4839
I3214
sVgrab
p4840
I1930
sVwatchin
p4841
I4962
sVgrad
p4842
I1932
sVview
p4843
I4894
sVikea
p4844
I2264
sVgrrrrr
p4845
I1966
sVbtw
p4846
I609
sVlegaci
p4847
I2623
sVnoodl
p4848
I3127
sVimmunityboost
p4849
I2271
sVwarrior
p4850
I4950
sVpacker
p4851
I3306
sVsmooth
p4852
I4180
sVframe
p4853
I1777
sVfuner
p4854
I1821
sVapolog
p4855
I201
sVnostalg
p4856
I3139
sVunivers
p4857
I4797
sVhumpti
p4858
I2221
sVzealot
p4859
I5240
sVstack
p4860
I4289
sVhollyoak
p4861
I2135
sVbangalor
p4862
I363
sVparticl
p4863
I3340
sVappreci
p4864
I214
sVdlc
p4865
I1288
sVstatu
p4866
I4315
sVbraid
p4867
I560
sVmiel
p4868
I2892
sVcloset
p4869
I859
sVrecord
p4870
I3717
sVpattern
p4871
I3359
sVdarlinghow
p4872
I1122
sVralph
p4873
I3673
sVthumb
p4874
I4579
sVemomi
p4875
I1465
sVtend
p4876
I4509
sVfavor
p4877
I1633
sVmysteri
p4878
I3025
sVprolli
p4879
I3592
sVeconomi
p4880
I1412
sVdestini
p4881
I1216
sVtyre
p4882
I4760
sVdlt
p4883
I1289
sVweird
p4884
I4996
sVmadr
p4885
I2752
sVharsher
p4886
I2039
sVflickr
p4887
I1724
sVyoull
p4888
I5221
sVemail
p4889
I1456
sVjunki
p4890
I2480
sVbought
p4891
I548
sVfundingtip
p4892
I1819
sVduant
p4893
I1368
sVtape
p4894
I4467
sVjavascript
p4895
I2424
sVexam
p4896
I1550
sVkei
p4897
I2503
sVjoy
p4898
I2469
sVtimeno
p4899
I4599
sVsprinkl
p4900
I4278
sVnothingbrows
p4901
I3144
sVrope
p4902
I3879
sVderogatori
p4903
I1206
sVentir
p4904
I1490
sVjoe
p4905
I2451
sVkey
p4906
I2513
sVbopsourcecom
p4907
I538
sVgroup
p4908
I1961
sVboss
p4909
I541
sVjon
p4910
I2460
sVthank
p4911
I4529
sVunsur
p4912
I4814
sVinstant
p4913
I2327
sVdobb
p4914
I1295
sVcareer
p4915
I699
sVjoke
p4916
I2459
sVequal
p4917
I1497
sVdrug
p4918
I1362
sVtlc
p4919
I4609
sVetc
p4920
I1516
sVadmit
p4921
I56
sVcongrat
p4922
I955
sVadmir
p4923
I55
sVatleast
p4924
I281
sVcommitte
p4925
I912
sVswim
p4926
I4439
sVelearn
p4927
I1434
sVjersey
p4928
I2436
sVwear
p4929
I4977
sVcomment
p4930
I905
sVvent
p4931
I4874
sVch
p4932
I745
sVco
p4933
I867
sVpleather
p4934
I3467
sVtoilet
p4935
I4619
sVwall
p4936
I4938
sVguidelin
p4937
I1978
sVca
p4938
I646
sVwonder
p4939
I5077
sVarriv
p4940
I242
sVwrap
p4941
I5123
sVcd
p4942
I730
sVarghh
p4943
I231
sVempti
p4944
I1468
sVdenis
p4945
I1193
sVlaugh
p4946
I2590
sVcommenc
p4947
I904
sVcs
p4948
I1072
sVrespect
p4949
I3794
sVoakland
p4950
I3182
sVcw
p4951
I1098
sVscanner
p4952
I3960
sVpoem
p4953
I3482
sVbbl
p4954
I400
sVslowli
p4955
I4161
sVvillaret
p4956
I4898
sVmidland
p4957
I2889
sVezin
p4958
I1584
sVdecent
p4959
I1158
sVbbc
p4960
I399
sVlt
p4961
I2731
sVcent
p4962
I735
sVwilli
p4963
I5041
sVquid
p4964
I3649
sVdrank
p4965
I1340
sVbesid
p4966
I444
sVchalkboard
p4967
I751
sVrockband
p4968
I3855
sVah
p4969
I92
sVship
p4970
I4066
sVhottest
p4971
I2173
sVhttplongyearsblogspotcom
p4972
I2191
sVwtf
p4973
I5133
sVmike
p4974
I2896
sVliverpool
p4975
I2684
sVsophi
p4976
I4223
sVkirken
p4977
I2532
sVcop
p4978
I996
sVhmt
p4979
I2126
sVpresenc
p4980
I3547
sVprotect
p4981
I3602
sVvmware
p4982
I4917
sVculpepp
p4983
I1080
sVoutand
p4984
I3279
sVphelp
p4985
I3408
sVtogeth
p4986
I4617
sVsketchedout
p4987
I4132
sVbull
p4988
I620
sVador
p4989
I58
sVfurnitur
p4990
I1827
sVatlanta
p4991
I279
sVpig
p4992
I3428
sVmsnbc
p4993
I3003
sVlovemak
p4994
I2725
sVscrutini
p4995
I3982
sVsajjid
p4996
I3920
sVprospect
p4997
I3601
sVholiday
p4998
I2134
sVlaser
p4999
I2580
sVprimeminist
p5000
I3562
sVputter
p5001
I3632
sVplain
p5002
I3449
sVnd
p5003
I3059
sVdeazi
p5004
I1150
sVtshirt
p5005
I4704
sVdefin
p5006
I1170
sVashleenicolespillsblogspotcom
p5007
I253
sVwwwloyalnutstv
p5008
I5149
sVfanniefreddi
p5009
I1614
sVwild
p5010
I5040
sVintranet
p5011
I2352
sVill
p5012
I2266
sVwatson
p5013
I4967
sVgamma
p5014
I1840
sVjehovah
p5015
I2432
sVvc
p5016
I4866
sVchennaiha
p5017
I784
sVengag
p5018
I1477
sVthatnev
p5019
I4532
sVviru
p5020
I4907
sVdemo
p5021
I1188
sVkurdistan
p5022
I2555
sVav
p5023
I312
sVsite
p5024
I4127
sVlinkedin
p5025
I2671
sVdemi
p5026
I1187
sVvp
p5027
I4925
sVmeshugalov
p5028
I2868
sVworkwish
p5029
I5106
sVvs
p5030
I4926
sVmotiv
p5031
I2985
sVsubstanti
p5032
I4383
sVarabia
p5033
I220
sVincom
p5034
I2284
sVrevis
p5035
I3817
sVvakow
p5036
I4854
sVsolidwork
p5037
I4198
sVscienc
p5038
I3969
sVstaredown
p5039
I4301
sVterrorist
p5040
I4518
sVwelcom
p5041
I4997
sVconact
p5042
I935
sVjapanes
p5043
I2419
sVnewsroom
p5044
I3094
sVparti
p5045
I3338
sVcross
p5046
I1056
sVlincecum
p5047
I2665
sVnerd
p5048
I3077
sVmember
p5049
I2856
sVhurrican
p5050
I2228
sVwhenev
p5051
I5015
sVspeaker
p5052
I4251
sVnorthwest
p5053
I3136
sVcollthispag
p5054
I888
sVmixtikl
p5055
I2927
sVfill
p5056
I1677
sVsupplybas
p5057
I4412
sVdifficult
p5058
I1240
sVcompetit
p5059
I926
sVplayin
p5060
I3461
sVball
p5061
I356
sVcolumbia
p5062
I893
sVstructur
p5063
I4364
sVwhine
p5064
I5018
sVobamatalk
p5065
I3186
sVpromo
p5066
I3594
sVchekar
p5067
I783
sVbald
p5068
I355
sVupon
p5069
I4824
sVeffect
p5070
I1421
sVcoffe
p5071
I876
sVhasnt
p5072
I2042
sVemptytalon
p5073
I1469
sVstudent
p5074
I4369
sVunderwayth
p5075
I4789
sVdust
p5076
I1386
sVpedal
p5077
I3376
sVexcruci
p5078
I1559
sVphp
p5079
I3420
sVjudgment
p5080
I2474
sVseem
p5081
I3998
sVolypia
p5082
I3226
sVgoogl
p5083
I1918
sVaudit
p5084
I295
sVretard
p5085
I3803
sVcenter
p5086
I736
sValbin
p5087
I117
sVderogitori
p5088
I1207
sVindonesia
p5089
I2295
sVseth
p5090
I4036
sVthought
p5091
I4568
sVkidand
p5092
I2519
sVvet
p5093
I4883
sVexampl
p5094
I1551
sVcommand
p5095
I903
sVchoos
p5096
I806
sVaudio
p5097
I294
sVpiec
p5098
I3427
sVferguson
p5099
I1651
sVlest
p5100
I2634
sVload
p5101
I2688
sVdistanc
p5102
I1275
sVnewest
p5103
I3087
sVkiss
p5104
I2533
sVweezi
p5105
I4993
sVless
p5106
I2632
sVhybrid
p5107
I2239
sVhalf
p5108
I2010
sVtext
p5109
I4521
sVyall
p5110
I5192
sVgun
p5111
I1988
sVclinic
p5112
I851
sVsugaryuk
p5113
I4395
sVpatheticnot
p5114
I3357
sVsimpli
p5115
I4114
sVpaul
p5116
I3361
sVgeotwitterorga
p5117
I1873
sVdemograph
p5118
I1191
sVweb
p5119
I4979
sVrepublican
p5120
I3782
sVthanksgiv
p5121
I4530
sVtight
p5122
I4591
sVinvestor
p5123
I2361
sVjeff
p5124
I2430
sVjare
p5125
I2421
sVlake
p5126
I2565
sVhall
p5127
I2011
sVarrest
p5128
I241
sVadd
p5129
I47
sVbloggingand
p5130
I505
sVcitizen
p5131
I830
sVtax
p5132
I4476
sVhomework
p5133
I2145
sVkqed
p5134
I2552
sVsick
p5135
I4098
sVmyth
p5136
I3026
sVbillionair
p5137
I469
sVjohari
p5138
I2452
sVcrue
p5139
I1061
sVcruz
p5140
I1068
sVdryer
p5141
I1365
sVfive
p5142
I1712
sVknow
p5143
I2541
sVunseen
p5144
I4811
sVdesk
p5145
I1212
sVpress
p5146
I3553
sVnutti
p5147
I3176
sVnvm
p5148
I3177
sVpassword
p5149
I3349
sVrecurs
p5150
I3722
sVhomeworkwork
p5151
I2146
sVdaywa
p5152
I1135
sVresid
p5153
I3789
sVlost
p5154
I2717
sVincred
p5155
I2286
sVmiami
p5156
I2879
sVcorpor
p5157
I1002
sVworkb
p5158
I5095
sVloser
p5159
I2715
sVsmeth
p5160
I4174
sVhimor
p5161
I2110
sVlose
p5162
I2714
sVpolit
p5163
I3493
sVcandl
p5164
I683
sVsoft
p5165
I4194
sVcrisi
p5166
I1054
sVitalian
p5167
I2389
sVmelet
p5168
I2855
sVtm
p5169
I4610
sVshed
p5170
I4057
sVschool
p5171
I3965
sVpcmechcom
p5172
I3366
sVcaptur
p5173
I693
sVearwir
p5174
I1401
sVinteract
p5175
I2340
sVpeer
p5176
I3379
sVpoop
p5177
I3502
sVself
p5178
I4003
sVhair
p5179
I2005
sVyaaa
p5180
I5187
sVrepeat
p5181
I3775
sVdvrd
p5182
I1390
sVelitist
p5183
I1450
sVguarante
p5184
I1971
sVbusyori
p5185
I635
sVpeter
p5186
I3404
sVlibrari
p5187
I2646
sVhwk
p5188
I2235
sVtrust
p5189
I4696
sVfeder
p5190
I1641
sVlead
p5191
I2607
sVesp
p5192
I1509
sVpurpleballi
p5193
I3627
sVavoid
p5194
I316
sVfinali
p5195
I1683
sVlean
p5196
I2612
sVfanni
p5197
I1613
sVlear
p5198
I2613
sVhoney
p5199
I2148
sVjeremi
p5200
I2434
sVsettl
p5201
I4038
sVselfhood
p5202
I4005
sVpersuad
p5203
I3401
sVspeak
p5204
I4250
sVleader
p5205
I2608
sVswept
p5206
I4437
sVgeni
p5207
I1867
sVregain
p5208
I3734
sVpr
p5209
I3528
sVpepper
p5210
I3388
sVgrrr
p5211
I1965
sVapplebe
p5212
I208
sVmaher
p5213
I2758
sVproud
p5214
I3605
sVps
p5215
I3608
sVjournal
p5216
I2467
sVident
p5217
I2256
sVcrysi
p5218
I1070
sVhost
p5219
I2169
sVdevil
p5220
I1224
sVdissert
p5221
I1274
sValthough
p5222
I141
sVpasta
p5223
I3352
sVmemoriesalway
p5224
I2860
sVstay
p5225
I4316
sVbodybuild
p5226
I524
sVanselm
p5227
I179
sVstage
p5228
I4292
sVplastic
p5229
I3455
sVsister
p5230
I4124
sVquarter
p5231
I3641
sVactual
p5232
I43
sVtimegod
p5233
I4598
sVsongsorion
p5234
I4213
sVhookup
p5235
I2155
sVfreedom
p5236
I1788
sVstephenson
p5237
I4325
sVhttp
p5238
I2187
sVunion
p5239
I4795
sVcarrier
p5240
I713
sVndp
p5241
I3060
sVdub
p5242
I1370
sVem
p5243
I1455
sVdesper
p5244
I1214
sVmraz
p5245
I2997
sVcarolyn
p5246
I710
sVglenn
p5247
I1896
sVowe
p5248
I3299
sVpayment
p5249
I3363
sVtortur
p5250
I4647
sVtutori
p5251
I4719
sVwashington
p5252
I4954
sVumbraco
p5253
I4773
sVthree
p5254
I4570
sVtwittercomutstreet
p5255
I4745
sVdoesnt
p5256
I1302
sVbrush
p5257
I605
sVawhil
p5258
I328
sVcouldnt
p5259
I1009
sVmerc
p5260
I2864
sVpointless
p5261
I3486
sVcruden
p5262
I1060
sVoctyeehah
p5263
I3202
sVbillionth
p5264
I470
sVvan
p5265
I4857
sVpictur
p5266
I3425
sVaarp
p5267
I5
sVstainless
p5268
I4293
sVsupport
p5269
I4413
sVresearcha
p5270
I3787
sVappl
p5271
I207
sVdowngrad
p5272
I1333
sVtg
p5273
I4525
sVnightynight
p5274
I3109
sVbiggest
p5275
I463
sVnaimah
p5276
I3034
sVcowork
p5277
I1026
sVdeliveri
p5278
I1182
sVyellow
p5279
I5207
sVmailer
p5280
I2761
sVbuy
p5281
I641
sVnorth
p5282
I3134
sVtina
p5283
I4602
sVohhhhhhhh
p5284
I3213
sVhr
p5285
I2181
sVhs
p5286
I2183
sVbrand
p5287
I564
sVsubscrib
p5288
I4381
sVhw
p5289
I2234
sVwed
p5290
I4987
sVwebinar
p5291
I4983
sVhi
p5292
I2099
sVgain
p5293
I1834
sValexs
p5294
I122
sVbum
p5295
I622
sVfairhop
p5296
I1597
sVbuc
p5297
I611
sVoverflow
p5298
I3295
sVear
p5299
I1395
sVeau
p5300
I1407
sVeat
p5301
I1406
sVhd
p5302
I2057
sVcount
p5303
I1012
sVmade
p5304
I2751
sVwise
p5305
I5058
sVtab
p5306
I4448
sVpalina
p5307
I3317
sVwhether
p5308
I5016
sVdut
p5309
I1387
sVanathem
p5310
I161
sVgodsor
p5311
I1908
sVflip
p5312
I1726
sVdistract
p5313
I1277
sVroam
p5314
I3847
sVmisti
p5315
I2924
sVspencer
p5316
I4259
sVlimit
p5317
I2664
sVtini
p5318
I4603
sVdmv
p5319
I1291
sVwhocooksanymor
p5320
I5023
sVcake
p5321
I656
sVproblem
p5322
I3572
sVstrategi
p5323
I4349
sVzebra
p5324
I5241
sVmilkshak
p5325
I2901
sVirish
p5326
I2376
sVtradeshow
p5327
I4664
sVny
p5328
I3179
sVdure
p5329
I1385
sVitwhat
p5330
I2401
sVpid
p5331
I3426
sVbalconi
p5332
I354
sVerin
p5333
I1503
sVnovemb
p5334
I3154
sVconan
p5335
I936
sVdeathb
p5336
I1149
sVink
p5337
I2312
sVmcnallynat
p5338
I2836
sVmash
p5339
I2809
sVandsleep
p5340
I166
sVeric
p5341
I1501
sVinc
p5342
I2279
sVdiego
p5343
I1237
sVspell
p5344
I4258
sVwhatchamacallit
p5345
I5012
sVcontest
p5346
I974
sVsexual
p5347
I4044
sVguidanc
p5348
I1977
sVboot
p5349
I535
sVdetail
p5350
I1218
sVvirtual
p5351
I4906
sVsheesh
p5352
I4058
sVbook
p5353
I533
sVfutur
p5354
I1830
sVrememb
p5355
I3762
sVhispe
p5356
I2114
sVnewsi
p5357
I3091
sVpostag
p5358
I3518
sVtalkin
p5359
I4462
sVroleplay
p5360
I3867
sVnelson
p5361
I3073
sVcanada
p5362
I677
sVstat
p5363
I4307
sVfrancisco
p5364
I1779
sVstar
p5365
I4298
sVpotenti
p5366
I3520
sVmonday
p5367
I2956
sVfulli
p5368
I1815
sVwoulnt
p5369
I5119
sVvega
p5370
I4867
sVjune
p5371
I2478
sVplacid
p5372
I3447
sVslideshow
p5373
I4154
sVwwwweddingmatterscomsgweddingpackag
p5374
I5172
sVstag
p5375
I4291
sVwamu
p5376
I4941
sVstab
p5377
I4287
sVkinda
p5378
I2525
sVwooohoooo
p5379
I5087
sVmypowermal
p5380
I3021
sVbasketbal
p5381
I390
sVgoin
p5382
I1910
sVappoint
p5383
I213
sVexperienc
p5384
I1573
sVtwhirl
p5385
I4732
sVopera
p5386
I3248
sVta
p5387
I4447
sVlakeland
p5388
I2566
sVspace
p5389
I4241
sVfest
p5390
I1652
sVrule
p5391
I3899
sVfailfuck
p5392
I1595
sVinfluenc
p5393
I2304
sVemerg
p5394
I1462
sVauxiliari
p5395
I311
sVsleepyand
p5396
I4148
sVdecemb
p5397
I1157
sVinvari
p5398
I2357
sVdefend
p5399
I1167
sVsask
p5400
I3940
ssS'ngram_range'
p5401
(I1
I1
tp5402
sS'preprocessor'
p5403
NsS'min_df'
p5404
I1
sS'max_features'
p5405
NsS'input'
p5406
S'content'
p5407
sS'max_df'
p5408
F1.0
sS'dtype'
p5409
c__builtin__
long
p5410
sS'stop_words_'
p5411
c__builtin__
set
p5412
((lp5413
tp5414
Rp5415
sS'strip_accents'
p5416
Nsb.